

Microchip MPLAB XC8 Assembler V2.05 build -831301201 
                                                                                               Wed May 08 11:48:31 2019

Microchip MPLAB XC8 C Compiler v2.05 (Free license) build 20181220022703 Og1 
     1                           	processor	18F8722
     2                           	fnconf	rparam,??,?,0
     3                           	opt	pw 120
     4                           	opt	flic
     5                           	psect	idataCOMRAM,global,class=CODE,delta=1,noexec
     6                           	psect	smallconst,global,reloc=2,class=SMALLCONST,delta=1,noexec
     7                           	psect	cinit,global,reloc=2,class=CODE,delta=1
     8                           	psect	dataCOMRAM,global,class=COMRAM,space=1,delta=1,noexec
     9                           	psect	cstackBANK0,global,class=BANK0,space=1,delta=1,noexec
    10                           	psect	cstackCOMRAM,global,class=COMRAM,space=1,delta=1,noexec
    11                           	psect	text0,global,reloc=2,class=CODE,delta=1
    12                           	psect	text1,global,reloc=2,class=CODE,delta=1
    13                           	psect	text2,global,reloc=2,class=CODE,delta=1
    14                           	psect	text3,global,reloc=2,class=CODE,delta=1
    15                           	psect	text4,global,reloc=2,class=CODE,delta=1
    16                           	psect	text5,global,reloc=2,class=CODE,delta=1
    17                           	psect	text6,global,reloc=2,class=CODE,delta=1
    18                           	psect	text7,global,reloc=2,class=CODE,delta=1
    19                           	psect	text8,global,reloc=2,class=CODE,delta=1
    20                           	psect	intcodelo,global,reloc=2,class=CODE,delta=1
    21                           	psect	text10,global,reloc=2,class=CODE,delta=1
    22                           	psect	text11,global,reloc=2,class=CODE,delta=1
    23                           	psect	text12,global,reloc=2,class=CODE,delta=1
    24                           	psect	text13,global,reloc=2,class=CODE,delta=1
    25                           	psect	text14,global,reloc=2,class=CODE,delta=1
    26                           	psect	text15,global,reloc=2,class=CODE,delta=1
    27                           	psect	text16,global,reloc=2,class=CODE,delta=1
    28                           	psect	text17,global,reloc=2,class=CODE,delta=1
    29                           	psect	text18,global,reloc=2,class=CODE,delta=1,group=1
    30                           	psect	text19,global,reloc=2,class=CODE,delta=1,group=1
    31                           	psect	text20,global,reloc=2,class=CODE,delta=1,group=1
    32                           	psect	text21,global,reloc=2,class=CODE,delta=1,group=1
    33                           	psect	text22,global,reloc=2,class=CODE,delta=1,group=1
    34                           	psect	text23,global,reloc=2,class=CODE,delta=1
    35                           	psect	text24,global,reloc=2,class=CODE,delta=1
    36                           	psect	text25,global,reloc=2,class=CODE,delta=1
    37                           	psect	text26,global,reloc=2,class=CODE,delta=1
    38                           	psect	intsave_regs,global,class=BIGRAM,space=1,delta=1,noexec
    39                           	psect	rparam,global,class=COMRAM,space=1,delta=1,noexec
    40                           	psect	temp,global,ovrld,common,class=COMRAM,space=1,delta=1
    41  0000                     
    42                           ; Version 2.05
    43                           ; Generated 20/12/2018 GMT
    44                           ; 
    45                           ; Copyright © 2018, Microchip Technology Inc. and its subsidiaries ("Microchip")
    46                           ; All rights reserved.
    47                           ; 
    48                           ; This software is developed by Microchip Technology Inc. and its subsidiaries ("Microch
      +                          ip").
    49                           ; 
    50                           ; Redistribution and use in source and binary forms, with or without modification, are
    51                           ; permitted provided that the following conditions are met:
    52                           ; 
    53                           ;     1. Redistributions of source code must retain the above copyright notice, this lis
      +                          t of
    54                           ;        conditions and the following disclaimer.
    55                           ; 
    56                           ;     2. Redistributions in binary form must reproduce the above copyright notice, this 
      +                          list
    57                           ;        of conditions and the following disclaimer in the documentation and/or other
    58                           ;        materials provided with the distribution.
    59                           ; 
    60                           ;     3. Microchip's name may not be used to endorse or promote products derived from th
      +                          is
    61                           ;        software without specific prior written permission.
    62                           ; 
    63                           ; THIS SOFTWARE IS PROVIDED BY MICROCHIP "AS IS" AND ANY EXPRESS OR IMPLIED WARRANTIES,
    64                           ; INCLUDING, BUT NOT LIMITED TO, THE IMPLIED WARRANTIES OF MERCHANTABILITY AND FITNESS F
      +                          OR
    65                           ; PURPOSE ARE DISCLAIMED.  IN NO EVENT SHALL MICROCHIP BE LIABLE FOR ANY DIRECT, INDIREC
      +                          T,
    66                           ; INCIDENTAL, SPECIAL, EXEMPLARY, OR CONSEQUENTIAL DAMAGES (INCLUDING BUT NOT LIMITED TO
    67                           ; PROCUREMENT OF SUBSTITUTE GOODS OR SERVICES; LOSS OF USE, DATA OR PROFITS; OR BUSINESS
    68                           ; INTERRUPTION) HOWSOEVER CAUSED AND ON ANY THEORY OF LIABILITY, WHETHER IN CONTRACT, ST
      +                          RICT
    69                           ; LIABILITY, OR TORT (INCLUDING NEGLIGENCE OR OTHERWISE) ARISING IN ANY WAY OUT OF THE U
      +                          SE OF
    70                           ; THIS SOFTWARE, EVEN IF ADVISED OF THE POSSIBILITY OF SUCH DAMAGE.
    71                           ; 
    72                           ; 
    73                           ; Code-generator required, PIC18F8722 Definitions
    74                           ; 
    75                           ; SFR Addresses
    76  0000                     
    77                           	psect	idataCOMRAM
    78  001E9E                     __pidataCOMRAM:
    79                           	opt callstack 0
    80                           
    81                           ;initializer for printValue@F4581
    82  001E9E  30                 	db	48
    83  001E9F  30                 	db	48
    84  001EA0  30                 	db	48
    85  001EA1  30                 	db	48
    86  001EA2  30                 	db	48
    87  001EA3  00                 	db	0
    88  0000                     _TMR0L	set	4054
    89  0000                     _TMR0H	set	4055
    90  0000                     _T0CONbits	set	4053
    91  0000                     _T0CON	set	4053
    92  0000                     _INTCON2bits	set	4081
    93  0000                     _RCONbits	set	4048
    94  0000                     _WREG	set	4072
    95  0000                     _SSPSTATbits	set	4039
    96  0000                     _SSPBUF	set	4041
    97  0000                     _SSPCON2bits	set	4037
    98  0000                     _SSPCON1bits	set	4038
    99  0000                     _PIR1bits	set	3998
   100  0000                     _SSPADD	set	4040
   101  0000                     _SSPCON1	set	4038
   102  0000                     _SSPCON2	set	4037
   103  0000                     _SSPSTAT	set	4039
   104  0000                     _PORTCbits	set	3970
   105  0000                     _PORTBbits	set	3969
   106  0000                     _TRISBbits	set	3987
   107  0000                     _TRISCbits	set	3988
   108  0000                     _INTCONbits	set	4082
   109                           
   110                           	psect	smallconst
   111  001000                     __psmallconst:
   112                           	opt callstack 0
   113  001000  00                 	db	0
   114  001001                     STR_1:
   115  001001  4C                 	db	76	;'L'
   116  001002  69                 	db	105	;'i'
   117  001003  67                 	db	103	;'g'
   118  001004  68                 	db	104	;'h'
   119  001005  74                 	db	116	;'t'
   120  001006  20                 	db	32
   121  001007  69                 	db	105	;'i'
   122  001008  6E                 	db	110	;'n'
   123  001009  74                 	db	116	;'t'
   124  00100A  65                 	db	101	;'e'
   125  00100B  6E                 	db	110	;'n'
   126  00100C  73                 	db	115	;'s'
   127  00100D  69                 	db	105	;'i'
   128  00100E  74                 	db	116	;'t'
   129  00100F  79                 	db	121	;'y'
   130  001010  00                 	db	0
   131  001011                     STR_2:
   132  001011  20                 	db	32
   133  001012  4C                 	db	76	;'L'
   134  001013  55                 	db	85	;'U'
   135  001014  58                 	db	88	;'X'
   136  001015  00                 	db	0
   137                           
   138                           ; #config settings
   139  001016  00                 	db	0	; dummy byte at the end
   140  0000                     
   141                           	psect	cinit
   142  001DCC                     __pcinit:
   143                           	opt callstack 0
   144  001DCC                     start_initialization:
   145                           	opt callstack 0
   146  001DCC                     __initialization:
   147                           	opt callstack 0
   148                           
   149                           ; Initialize objects allocated to COMRAM (6 bytes)
   150                           ; load TBLPTR registers with __pidataCOMRAM
   151  001DCC  0E9E               	movlw	low __pidataCOMRAM
   152  001DCE  6EF6               	movwf	tblptrl,c
   153  001DD0  0E1E               	movlw	high __pidataCOMRAM
   154  001DD2  6EF7               	movwf	tblptrh,c
   155  001DD4  0E00               	movlw	low (__pidataCOMRAM shr (0+16))
   156  001DD6  6EF8               	movwf	tblptru,c
   157  001DD8  EE00  F055         	lfsr	0,__pdataCOMRAM
   158  001DDC  EE10 F006          	lfsr	1,6
   159  001DE0                     copy_data0:
   160  001DE0  0009               	tblrd		*+
   161  001DE2  CFF5 FFEE          	movff	tablat,postinc0
   162  001DE6  50E5               	movf	postdec1,w,c
   163  001DE8  50E1               	movf	fsr1l,w,c
   164  001DEA  E1FA               	bnz	copy_data0
   165  001DEC                     end_of_initialization:
   166                           	opt callstack 0
   167  001DEC                     __end_of__initialization:
   168                           	opt callstack 0
   169  001DEC  905B               	bcf	int$flags,0,c	;clear compiler interrupt flag (level 1)
   170  001DEE  925B               	bcf	int$flags,1,c	;clear compiler interrupt flag (level 2)
   171  001DF0  0E00               	movlw	low (__Lmediumconst shr (0+16))
   172  001DF2  6EF8               	movwf	tblptru,c
   173  001DF4  0100               	movlb	0
   174  001DF6  EFFD  F00E         	goto	_main	;jump to C main() function
   175                           
   176                           	psect	dataCOMRAM
   177  000055                     __pdataCOMRAM:
   178                           	opt callstack 0
   179  000055                     printValue@F4581:
   180                           	opt callstack 0
   181  000055                     	ds	6
   182                           
   183                           	psect	cstackBANK0
   184  000060                     __pcstackBANK0:
   185                           	opt callstack 0
   186  000060                     ??_LCD_Command:
   187  000060                     ??_LCD_Char:
   188                           
   189                           ; 1 bytes @ 0x0
   190  000060                     	ds	2
   191  000062                     LCD_Char@char_data:
   192                           	opt callstack 0
   193                           
   194                           ; 1 bytes @ 0x2
   195  000062                     	ds	1
   196  000063                     LCD_Command@cmnd:
   197                           	opt callstack 0
   198  000063                     LCD_String@str:
   199                           	opt callstack 0
   200                           
   201                           ; 2 bytes @ 0x3
   202  000063                     	ds	1
   203  000064                     ??_LCD_Init:
   204                           
   205                           ; 1 bytes @ 0x4
   206  000064                     	ds	1
   207  000065                     ??_LCD_String:
   208                           
   209                           ; 1 bytes @ 0x5
   210  000065                     	ds	2
   211  000067                     LCD_String@i:
   212                           	opt callstack 0
   213                           
   214                           ; 2 bytes @ 0x7
   215  000067                     	ds	2
   216  000069                     
   217                           ; 1 bytes @ 0x9
   218                           
   219                           	psect	cstackCOMRAM
   220  000001                     __pcstackCOMRAM:
   221                           	opt callstack 0
   222  000001                     ??_I2C_Master_Read:
   223  000001                     ??i1_LCD_Command:
   224  000001                     ??i1_LCD_Char:
   225  000001                     ?___aldiv:
   226                           	opt callstack 0
   227  000001                     ?___almod:
   228                           	opt callstack 0
   229  000001                     ?___xxtofl:
   230                           	opt callstack 0
   231  000001                     I2C_Master_Write@d:
   232                           	opt callstack 0
   233  000001                     ___aldiv@dividend:
   234                           	opt callstack 0
   235  000001                     ___almod@dividend:
   236                           	opt callstack 0
   237  000001                     ___xxtofl@val:
   238                           	opt callstack 0
   239                           
   240                           ; 4 bytes @ 0x0
   241  000001                     	ds	1
   242  000002                     I2C_Master_Read@a:
   243                           	opt callstack 0
   244                           
   245                           ; 1 bytes @ 0x1
   246  000002                     	ds	1
   247  000003                     I2C_Master_Read@temp:
   248                           	opt callstack 0
   249  000003                     i1LCD_Char@char_data:
   250                           	opt callstack 0
   251                           
   252                           ; 1 bytes @ 0x2
   253  000003                     	ds	1
   254  000004                     ?_readByte:
   255                           	opt callstack 0
   256  000004                     i1LCD_Command@cmnd:
   257                           	opt callstack 0
   258  000004                     i1LCD_String@str:
   259                           	opt callstack 0
   260                           
   261                           ; 2 bytes @ 0x3
   262  000004                     	ds	1
   263  000005                     ??___xxtofl:
   264  000005                     ___aldiv@divisor:
   265                           	opt callstack 0
   266  000005                     ___almod@divisor:
   267                           	opt callstack 0
   268                           
   269                           ; 4 bytes @ 0x4
   270  000005                     	ds	1
   271  000006                     ??_readByte:
   272  000006                     ??i1_LCD_String:
   273                           
   274                           ; 1 bytes @ 0x5
   275  000006                     	ds	2
   276  000008                     readByte@byte:
   277                           	opt callstack 0
   278  000008                     i1LCD_String@i:
   279                           	opt callstack 0
   280                           
   281                           ; 2 bytes @ 0x7
   282  000008                     	ds	1
   283  000009                     ___aldiv@counter:
   284                           	opt callstack 0
   285  000009                     ___almod@counter:
   286                           	opt callstack 0
   287  000009                     ___xxtofl@sign:
   288                           	opt callstack 0
   289                           
   290                           ; 1 bytes @ 0x8
   291  000009                     	ds	1
   292  00000A                     LCD_String_xy@pos:
   293                           	opt callstack 0
   294  00000A                     ___aldiv@sign:
   295                           	opt callstack 0
   296  00000A                     ___almod@sign:
   297                           	opt callstack 0
   298  00000A                     ___xxtofl@exp:
   299                           	opt callstack 0
   300                           
   301                           ; 1 bytes @ 0x9
   302  00000A                     	ds	1
   303  00000B                     LCD_String_xy@str:
   304                           	opt callstack 0
   305  00000B                     ___aldiv@quotient:
   306                           	opt callstack 0
   307  00000B                     ___xxtofl@arg:
   308                           	opt callstack 0
   309                           
   310                           ; 4 bytes @ 0xA
   311  00000B                     	ds	2
   312  00000D                     LCD_String_xy@row:
   313                           	opt callstack 0
   314                           
   315                           ; 1 bytes @ 0xC
   316  00000D                     	ds	2
   317  00000F                     ?___fldiv:
   318                           	opt callstack 0
   319  00000F                     ___fldiv@b:
   320                           	opt callstack 0
   321                           
   322                           ; 4 bytes @ 0xE
   323  00000F                     	ds	4
   324  000013                     ___fldiv@a:
   325                           	opt callstack 0
   326                           
   327                           ; 4 bytes @ 0x12
   328  000013                     	ds	4
   329  000017                     ??___fldiv:
   330                           
   331                           ; 1 bytes @ 0x16
   332  000017                     	ds	4
   333  00001B                     ___fldiv@rem:
   334                           	opt callstack 0
   335                           
   336                           ; 4 bytes @ 0x1A
   337  00001B                     	ds	4
   338  00001F                     ___fldiv@sign:
   339                           	opt callstack 0
   340                           
   341                           ; 1 bytes @ 0x1E
   342  00001F                     	ds	1
   343  000020                     ___fldiv@new_exp:
   344                           	opt callstack 0
   345                           
   346                           ; 2 bytes @ 0x1F
   347  000020                     	ds	2
   348  000022                     ___fldiv@grs:
   349                           	opt callstack 0
   350                           
   351                           ; 4 bytes @ 0x21
   352  000022                     	ds	4
   353  000026                     ___fldiv@bexp:
   354                           	opt callstack 0
   355                           
   356                           ; 1 bytes @ 0x25
   357  000026                     	ds	1
   358  000027                     ___fldiv@aexp:
   359                           	opt callstack 0
   360                           
   361                           ; 1 bytes @ 0x26
   362  000027                     	ds	1
   363  000028                     ?___fltol:
   364                           	opt callstack 0
   365  000028                     ___fltol@f1:
   366                           	opt callstack 0
   367                           
   368                           ; 4 bytes @ 0x27
   369  000028                     	ds	4
   370  00002C                     ??___fltol:
   371                           
   372                           ; 1 bytes @ 0x2B
   373  00002C                     	ds	4
   374  000030                     ___fltol@sign1:
   375                           	opt callstack 0
   376                           
   377                           ; 1 bytes @ 0x2F
   378  000030                     	ds	1
   379  000031                     ___fltol@exp1:
   380                           	opt callstack 0
   381                           
   382                           ; 1 bytes @ 0x30
   383  000031                     	ds	1
   384  000032                     printValue@lux:
   385                           	opt callstack 0
   386                           
   387                           ; 2 bytes @ 0x31
   388  000032                     	ds	2
   389  000034                     ??_printValue:
   390                           
   391                           ; 1 bytes @ 0x33
   392  000034                     	ds	4
   393  000038                     printValue@str:
   394                           	opt callstack 0
   395                           
   396                           ; 6 bytes @ 0x37
   397  000038                     	ds	6
   398  00003E                     printValue@number:
   399                           	opt callstack 0
   400                           
   401                           ; 2 bytes @ 0x3D
   402  00003E                     	ds	2
   403  000040                     printValue@i:
   404                           	opt callstack 0
   405                           
   406                           ; 2 bytes @ 0x3F
   407  000040                     	ds	2
   408  000042                     printValue@value:
   409                           	opt callstack 0
   410                           
   411                           ; 4 bytes @ 0x41
   412  000042                     	ds	4
   413  000046                     ??_timer_interrupt:
   414                           
   415                           ; 1 bytes @ 0x45
   416  000046                     	ds	13
   417  000053                     timer_interrupt@lux:
   418                           	opt callstack 0
   419                           
   420                           ; 2 bytes @ 0x52
   421  000053                     	ds	2
   422                           
   423 ;;
   424 ;;Main: autosize = 0, tempsize = 0, incstack = 0, save=0
   425 ;;
   426 ;; *************** function _main *****************
   427 ;; Defined at:
   428 ;;		line 37 in file "F:/SV3_HK2/DoAn2/MPLABXProjects/I2CHandCodeAndCompute.X/main.c"
   429 ;; Parameters:    Size  Location     Type
   430 ;;		None
   431 ;; Auto vars:     Size  Location     Type
   432 ;;		None
   433 ;; Return value:  Size  Location     Type
   434 ;;                  1    wreg      void 
   435 ;; Registers used:
   436 ;;		wreg, fsr0l, fsr0h, status,2, status,0, tblptrl, tblptrh, tblptru, cstack
   437 ;; Tracked objects:
   438 ;;		On entry : 0/0
   439 ;;		On exit  : 0/0
   440 ;;		Unchanged: 0/0
   441 ;; Data sizes:     COMRAM   BANK0   BANK1   BANK2   BANK3   BANK4   BANK5   BANK6   BANK7   BANK8   BANK9  BANK10  BANK1
      +1  BANK12  BANK13  BANK14  BANK15
   442 ;;      Params:         0       0       0       0       0       0       0       0       0       0       0       0       
      +0       0       0       0       0
   443 ;;      Locals:         0       0       0       0       0       0       0       0       0       0       0       0       
      +0       0       0       0       0
   444 ;;      Temps:          0       0       0       0       0       0       0       0       0       0       0       0       
      +0       0       0       0       0
   445 ;;      Totals:         0       0       0       0       0       0       0       0       0       0       0       0       
      +0       0       0       0       0
   446 ;;Total ram usage:        0 bytes
   447 ;; Hardware stack levels required when called:    7
   448 ;; This function calls:
   449 ;;		_I2C_Master_Init
   450 ;;		_LCD_Init
   451 ;;		_LCD_String
   452 ;;		_init_interrupt
   453 ;;		_init_interrupt_timer0
   454 ;;		_setup_timer0
   455 ;; This function is called by:
   456 ;;		Startup code after reset
   457 ;; This function uses a non-reentrant model
   458 ;;
   459                           
   460                           	psect	text0
   461  001DFA                     __ptext0:
   462                           	opt callstack 0
   463  001DFA                     _main:
   464                           	opt callstack 24
   465                           
   466                           ;F:/SV3_HK2/DoAn2/MPLABXProjects/I2CHandCodeAndCompute.X/main.c: 41:     I2C_Master_Init
      +                          ();
   467                           
   468                           ;incstack = 0
   469  001DFA  EC0F  F00F         	call	_I2C_Master_Init	;wreg free
   470                           
   471                           ;F:/SV3_HK2/DoAn2/MPLABXProjects/I2CHandCodeAndCompute.X/main.c: 42:     LCD_Init();
   472  001DFE  EC90  F00E         	call	_LCD_Init	;wreg free
   473                           
   474                           ;F:/SV3_HK2/DoAn2/MPLABXProjects/I2CHandCodeAndCompute.X/main.c: 43:     LCD_String("Lig
      +                          ht intensity");
   475  001E02  0E01               	movlw	low STR_1
   476  001E04  0100               	movlb	0	; () banked
   477  001E06  6F63               	movwf	LCD_String@str& (0+255),b
   478  001E08  0E10               	movlw	high STR_1
   479  001E0A  6F64               	movwf	(LCD_String@str+1)& (0+255),b
   480  001E0C  ECED  F00D         	call	_LCD_String	;wreg free
   481                           
   482                           ;F:/SV3_HK2/DoAn2/MPLABXProjects/I2CHandCodeAndCompute.X/main.c: 45:     init_interrupt(
      +                          );
   483  001E10  EC3F  F00F         	call	_init_interrupt	;wreg free
   484                           
   485                           ;F:/SV3_HK2/DoAn2/MPLABXProjects/I2CHandCodeAndCompute.X/main.c: 46:     init_interrupt_
      +                          timer0();
   486  001E14  EC28  F00F         	call	_init_interrupt_timer0	;wreg free
   487                           
   488                           ;F:/SV3_HK2/DoAn2/MPLABXProjects/I2CHandCodeAndCompute.X/main.c: 47:     setup_timer0();
   489  001E18  EC31  F00F         	call	_setup_timer0	;wreg free
   490  001E1C                     l40:
   491  001E1C  D7FF               	goto	l40
   492  001E1E                     __end_of_main:
   493                           	opt callstack 0
   494                           
   495 ;; *************** function _setup_timer0 *****************
   496 ;; Defined at:
   497 ;;		line 25 in file "F:/SV3_HK2/DoAn2/MPLABXProjects/I2CHandCodeAndCompute.X/interrupt.c"
   498 ;; Parameters:    Size  Location     Type
   499 ;;		None
   500 ;; Auto vars:     Size  Location     Type
   501 ;;		None
   502 ;; Return value:  Size  Location     Type
   503 ;;                  1    wreg      void 
   504 ;; Registers used:
   505 ;;		wreg, status,2
   506 ;; Tracked objects:
   507 ;;		On entry : 0/0
   508 ;;		On exit  : 0/0
   509 ;;		Unchanged: 0/0
   510 ;; Data sizes:     COMRAM   BANK0   BANK1   BANK2   BANK3   BANK4   BANK5   BANK6   BANK7   BANK8   BANK9  BANK10  BANK1
      +1  BANK12  BANK13  BANK14  BANK15
   511 ;;      Params:         0       0       0       0       0       0       0       0       0       0       0       0       
      +0       0       0       0       0
   512 ;;      Locals:         0       0       0       0       0       0       0       0       0       0       0       0       
      +0       0       0       0       0
   513 ;;      Temps:          0       0       0       0       0       0       0       0       0       0       0       0       
      +0       0       0       0       0
   514 ;;      Totals:         0       0       0       0       0       0       0       0       0       0       0       0       
      +0       0       0       0       0
   515 ;;Total ram usage:        0 bytes
   516 ;; Hardware stack levels used:    1
   517 ;; Hardware stack levels required when called:    5
   518 ;; This function calls:
   519 ;;		Nothing
   520 ;; This function is called by:
   521 ;;		_main
   522 ;; This function uses a non-reentrant model
   523 ;;
   524                           
   525                           	psect	text1
   526  001E62                     __ptext1:
   527                           	opt callstack 0
   528  001E62                     _setup_timer0:
   529                           	opt callstack 25
   530                           
   531                           ;F:/SV3_HK2/DoAn2/MPLABXProjects/I2CHandCodeAndCompute.X/interrupt.c: 27:     T0CONbits.
      +                          TMR0ON = 0;
   532                           
   533                           ;incstack = 0
   534  001E62  9ED5               	bcf	4053,7,c	;volatile
   535                           
   536                           ;F:/SV3_HK2/DoAn2/MPLABXProjects/I2CHandCodeAndCompute.X/interrupt.c: 28:     TMR0H = 0x
      +                          67;
   537  001E64  0E67               	movlw	103
   538  001E66  6ED7               	movwf	4055,c	;volatile
   539                           
   540                           ;F:/SV3_HK2/DoAn2/MPLABXProjects/I2CHandCodeAndCompute.X/interrupt.c: 29:     TMR0L = 0x
      +                          69;
   541  001E68  0E69               	movlw	105
   542  001E6A  6ED6               	movwf	4054,c	;volatile
   543                           
   544                           ;F:/SV3_HK2/DoAn2/MPLABXProjects/I2CHandCodeAndCompute.X/interrupt.c: 30:     T0CONbits.
      +                          TMR0ON = 1;
   545  001E6C  8ED5               	bsf	4053,7,c	;volatile
   546  001E6E  0012               	return		;funcret
   547  001E70                     __end_of_setup_timer0:
   548                           	opt callstack 0
   549                           
   550 ;; *************** function _init_interrupt_timer0 *****************
   551 ;; Defined at:
   552 ;;		line 16 in file "F:/SV3_HK2/DoAn2/MPLABXProjects/I2CHandCodeAndCompute.X/interrupt.c"
   553 ;; Parameters:    Size  Location     Type
   554 ;;		None
   555 ;; Auto vars:     Size  Location     Type
   556 ;;		None
   557 ;; Return value:  Size  Location     Type
   558 ;;                  1    wreg      void 
   559 ;; Registers used:
   560 ;;		wreg, status,2
   561 ;; Tracked objects:
   562 ;;		On entry : 0/0
   563 ;;		On exit  : 0/0
   564 ;;		Unchanged: 0/0
   565 ;; Data sizes:     COMRAM   BANK0   BANK1   BANK2   BANK3   BANK4   BANK5   BANK6   BANK7   BANK8   BANK9  BANK10  BANK1
      +1  BANK12  BANK13  BANK14  BANK15
   566 ;;      Params:         0       0       0       0       0       0       0       0       0       0       0       0       
      +0       0       0       0       0
   567 ;;      Locals:         0       0       0       0       0       0       0       0       0       0       0       0       
      +0       0       0       0       0
   568 ;;      Temps:          0       0       0       0       0       0       0       0       0       0       0       0       
      +0       0       0       0       0
   569 ;;      Totals:         0       0       0       0       0       0       0       0       0       0       0       0       
      +0       0       0       0       0
   570 ;;Total ram usage:        0 bytes
   571 ;; Hardware stack levels used:    1
   572 ;; Hardware stack levels required when called:    5
   573 ;; This function calls:
   574 ;;		Nothing
   575 ;; This function is called by:
   576 ;;		_main
   577 ;; This function uses a non-reentrant model
   578 ;;
   579                           
   580                           	psect	text2
   581  001E50                     __ptext2:
   582                           	opt callstack 0
   583  001E50                     _init_interrupt_timer0:
   584                           	opt callstack 25
   585                           
   586                           ;F:/SV3_HK2/DoAn2/MPLABXProjects/I2CHandCodeAndCompute.X/interrupt.c: 17:     INTCONbits
      +                          .TMR0IF = 0;
   587                           
   588                           ;incstack = 0
   589  001E50  94F2               	bcf	4082,2,c	;volatile
   590                           
   591                           ;F:/SV3_HK2/DoAn2/MPLABXProjects/I2CHandCodeAndCompute.X/interrupt.c: 18:     INTCONbits
      +                          .TMR0IE = 1;
   592  001E52  8AF2               	bsf	4082,5,c	;volatile
   593                           
   594                           ;F:/SV3_HK2/DoAn2/MPLABXProjects/I2CHandCodeAndCompute.X/interrupt.c: 19:     INTCON2bit
      +                          s.TMR0IP = 0;
   595  001E54  94F1               	bcf	4081,2,c	;volatile
   596                           
   597                           ;F:/SV3_HK2/DoAn2/MPLABXProjects/I2CHandCodeAndCompute.X/interrupt.c: 20:     T0CON = 0x
      +                          00;
   598  001E56  0E00               	movlw	0
   599  001E58  6ED5               	movwf	4053,c	;volatile
   600                           
   601                           ;F:/SV3_HK2/DoAn2/MPLABXProjects/I2CHandCodeAndCompute.X/interrupt.c: 21:     T0CONbits.
      +                          T0PS2 = 1;
   602  001E5A  84D5               	bsf	4053,2,c	;volatile
   603                           
   604                           ;F:/SV3_HK2/DoAn2/MPLABXProjects/I2CHandCodeAndCompute.X/interrupt.c: 22:     T0CONbits.
      +                          T0PS1 = 1;
   605  001E5C  82D5               	bsf	4053,1,c	;volatile
   606                           
   607                           ;F:/SV3_HK2/DoAn2/MPLABXProjects/I2CHandCodeAndCompute.X/interrupt.c: 23:     T0CONbits.
      +                          T0PS0 = 0;
   608  001E5E  90D5               	bcf	4053,0,c	;volatile
   609  001E60  0012               	return		;funcret
   610  001E62                     __end_of_init_interrupt_timer0:
   611                           	opt callstack 0
   612                           
   613 ;; *************** function _init_interrupt *****************
   614 ;; Defined at:
   615 ;;		line 5 in file "F:/SV3_HK2/DoAn2/MPLABXProjects/I2CHandCodeAndCompute.X/interrupt.c"
   616 ;; Parameters:    Size  Location     Type
   617 ;;		None
   618 ;; Auto vars:     Size  Location     Type
   619 ;;		None
   620 ;; Return value:  Size  Location     Type
   621 ;;                  1    wreg      void 
   622 ;; Registers used:
   623 ;;		None
   624 ;; Tracked objects:
   625 ;;		On entry : 0/0
   626 ;;		On exit  : 0/0
   627 ;;		Unchanged: 0/0
   628 ;; Data sizes:     COMRAM   BANK0   BANK1   BANK2   BANK3   BANK4   BANK5   BANK6   BANK7   BANK8   BANK9  BANK10  BANK1
      +1  BANK12  BANK13  BANK14  BANK15
   629 ;;      Params:         0       0       0       0       0       0       0       0       0       0       0       0       
      +0       0       0       0       0
   630 ;;      Locals:         0       0       0       0       0       0       0       0       0       0       0       0       
      +0       0       0       0       0
   631 ;;      Temps:          0       0       0       0       0       0       0       0       0       0       0       0       
      +0       0       0       0       0
   632 ;;      Totals:         0       0       0       0       0       0       0       0       0       0       0       0       
      +0       0       0       0       0
   633 ;;Total ram usage:        0 bytes
   634 ;; Hardware stack levels used:    1
   635 ;; Hardware stack levels required when called:    5
   636 ;; This function calls:
   637 ;;		Nothing
   638 ;; This function is called by:
   639 ;;		_main
   640 ;; This function uses a non-reentrant model
   641 ;;
   642                           
   643                           	psect	text3
   644  001E7E                     __ptext3:
   645                           	opt callstack 0
   646  001E7E                     _init_interrupt:
   647                           	opt callstack 25
   648                           
   649                           ;F:/SV3_HK2/DoAn2/MPLABXProjects/I2CHandCodeAndCompute.X/interrupt.c: 6:     RCONbits.IP
      +                          EN = 1;
   650                           
   651                           ;incstack = 0
   652  001E7E  8ED0               	bsf	4048,7,c	;volatile
   653                           
   654                           ;F:/SV3_HK2/DoAn2/MPLABXProjects/I2CHandCodeAndCompute.X/interrupt.c: 7:     INTCONbits.
      +                          GIEH = 1;
   655  001E80  8EF2               	bsf	4082,7,c	;volatile
   656                           
   657                           ;F:/SV3_HK2/DoAn2/MPLABXProjects/I2CHandCodeAndCompute.X/interrupt.c: 8:     INTCONbits.
      +                          GIEL = 1;
   658  001E82  8CF2               	bsf	4082,6,c	;volatile
   659  001E84  0012               	return		;funcret
   660  001E86                     __end_of_init_interrupt:
   661                           	opt callstack 0
   662                           
   663 ;; *************** function _LCD_String *****************
   664 ;; Defined at:
   665 ;;		line 72 in file "F:/SV3_HK2/DoAn2/MPLABXProjects/I2CHandCodeAndCompute.X/lcd.c"
   666 ;; Parameters:    Size  Location     Type
   667 ;;  str             2    3[BANK0 ] PTR unsigned char 
   668 ;;		 -> STR_2(5), printValue@str(6), STR_1(16), 
   669 ;; Auto vars:     Size  Location     Type
   670 ;;  i               2    7[BANK0 ] int 
   671 ;; Return value:  Size  Location     Type
   672 ;;                  1    wreg      void 
   673 ;; Registers used:
   674 ;;		wreg, fsr0l, fsr0h, status,2, status,0, tblptrl, tblptrh, tblptru, cstack
   675 ;; Tracked objects:
   676 ;;		On entry : 0/0
   677 ;;		On exit  : 0/0
   678 ;;		Unchanged: 0/0
   679 ;; Data sizes:     COMRAM   BANK0   BANK1   BANK2   BANK3   BANK4   BANK5   BANK6   BANK7   BANK8   BANK9  BANK10  BANK1
      +1  BANK12  BANK13  BANK14  BANK15
   680 ;;      Params:         0       2       0       0       0       0       0       0       0       0       0       0       
      +0       0       0       0       0
   681 ;;      Locals:         0       2       0       0       0       0       0       0       0       0       0       0       
      +0       0       0       0       0
   682 ;;      Temps:          0       2       0       0       0       0       0       0       0       0       0       0       
      +0       0       0       0       0
   683 ;;      Totals:         0       6       0       0       0       0       0       0       0       0       0       0       
      +0       0       0       0       0
   684 ;;Total ram usage:        6 bytes
   685 ;; Hardware stack levels used:    1
   686 ;; Hardware stack levels required when called:    6
   687 ;; This function calls:
   688 ;;		_LCD_Char
   689 ;; This function is called by:
   690 ;;		_main
   691 ;; This function uses a non-reentrant model
   692 ;;
   693                           
   694                           	psect	text4
   695  001BDA                     __ptext4:
   696                           	opt callstack 0
   697  001BDA                     _LCD_String:
   698                           	opt callstack 24
   699                           
   700                           ;F:/SV3_HK2/DoAn2/MPLABXProjects/I2CHandCodeAndCompute.X/lcd.c: 73:     int i;;F:/SV3_HK
      +                          2/DoAn2/MPLABXProjects/I2CHandCodeAndCompute.X/lcd.c: 74:     for (i = 0; str[i] != 0; i
      +                          ++){
   701                           
   702                           ;incstack = 0
   703  001BDA  0E00               	movlw	0
   704  001BDC  0100               	movlb	0	; () banked
   705  001BDE  6F68               	movwf	(LCD_String@i+1)& (0+255),b
   706  001BE0  0E00               	movlw	0
   707  001BE2  6F67               	movwf	LCD_String@i& (0+255),b
   708  001BE4  D01D               	goto	l2010
   709  001BE6                     l2006:
   710                           
   711                           ;F:/SV3_HK2/DoAn2/MPLABXProjects/I2CHandCodeAndCompute.X/lcd.c: 75:         LCD_Char(str
      +                          [i]);
   712  001BE6  0100               	movlb	0	; () banked
   713  001BE8  5167               	movf	LCD_String@i& (0+255),w,b
   714  001BEA  2563               	addwf	LCD_String@str& (0+255),w,b
   715  001BEC  6F65               	movwf	??_LCD_String& (0+255),b
   716  001BEE  5168               	movf	(LCD_String@i+1)& (0+255),w,b
   717  001BF0  2164               	addwfc	(LCD_String@str+1)& (0+255),w,b
   718  001BF2  6F66               	movwf	(??_LCD_String+1)& (0+255),b
   719  001BF4  C065  FFF6         	movff	??_LCD_String,tblptrl
   720  001BF8  C066  FFF7         	movff	??_LCD_String+1,tblptrh
   721  001BFC  0E00               	movlw	low (__smallconst shr (0+16))
   722  001BFE  6EF8               	movwf	tblptru,c
   723  001C00  0E0F               	movlw	(high __ramtop+-1)
   724  001C02  64F7               	cpfsgt	tblptrh,c
   725  001C04  D003               	bra	u1597
   726  001C06  0008               	tblrd		*
   727  001C08  50F5               	movf	tablat,w,c
   728  001C0A  D005               	bra	u1590
   729  001C0C                     u1597:
   730  001C0C  CFF6 FFE9          	movff	tblptrl,fsr0l
   731  001C10  CFF7 FFEA          	movff	tblptrh,fsr0h
   732  001C14  50EF               	movf	indf0,w,c
   733  001C16                     u1590:
   734  001C16  ECA8  F00A         	call	_LCD_Char
   735                           
   736                           ;F:/SV3_HK2/DoAn2/MPLABXProjects/I2CHandCodeAndCompute.X/lcd.c: 76:     }
   737  001C1A  0100               	movlb	0	; () banked
   738  001C1C  4B67               	infsnz	LCD_String@i& (0+255),f,b
   739  001C1E  2B68               	incf	(LCD_String@i+1)& (0+255),f,b
   740  001C20                     l2010:
   741                           
   742                           ; BSR set to: 0
   743  001C20  5167               	movf	LCD_String@i& (0+255),w,b
   744  001C22  2563               	addwf	LCD_String@str& (0+255),w,b
   745  001C24  6F65               	movwf	??_LCD_String& (0+255),b
   746  001C26  5168               	movf	(LCD_String@i+1)& (0+255),w,b
   747  001C28  2164               	addwfc	(LCD_String@str+1)& (0+255),w,b
   748  001C2A  6F66               	movwf	(??_LCD_String+1)& (0+255),b
   749  001C2C  C065  FFF6         	movff	??_LCD_String,tblptrl
   750  001C30  C066  FFF7         	movff	??_LCD_String+1,tblptrh
   751  001C34  0E00               	movlw	low (__smallconst shr (0+16))
   752  001C36  6EF8               	movwf	tblptru,c
   753  001C38  0E0F               	movlw	(high __ramtop+-1)
   754  001C3A  64F7               	cpfsgt	tblptrh,c
   755  001C3C  D003               	bra	u1607
   756  001C3E  0008               	tblrd		*
   757  001C40  50F5               	movf	tablat,w,c
   758  001C42  D005               	bra	u1600
   759  001C44                     u1607:
   760  001C44  CFF6 FFE9          	movff	tblptrl,fsr0l
   761  001C48  CFF7 FFEA          	movff	tblptrh,fsr0h
   762  001C4C  50EF               	movf	indf0,w,c
   763  001C4E                     u1600:
   764  001C4E  0900               	iorlw	0
   765  001C50  B4D8               	btfsc	status,2,c
   766  001C52  0012               	return	
   767  001C54  D7C8               	goto	l2006
   768  001C56                     __end_of_LCD_String:
   769                           	opt callstack 0
   770                           
   771 ;; *************** function _LCD_Char *****************
   772 ;; Defined at:
   773 ;;		line 49 in file "F:/SV3_HK2/DoAn2/MPLABXProjects/I2CHandCodeAndCompute.X/lcd.c"
   774 ;; Parameters:    Size  Location     Type
   775 ;;  char_data       1    wreg     unsigned char 
   776 ;; Auto vars:     Size  Location     Type
   777 ;;  char_data       1    2[BANK0 ] unsigned char 
   778 ;; Return value:  Size  Location     Type
   779 ;;                  1    wreg      void 
   780 ;; Registers used:
   781 ;;		wreg, status,2, status,0
   782 ;; Tracked objects:
   783 ;;		On entry : 0/0
   784 ;;		On exit  : 0/0
   785 ;;		Unchanged: 0/0
   786 ;; Data sizes:     COMRAM   BANK0   BANK1   BANK2   BANK3   BANK4   BANK5   BANK6   BANK7   BANK8   BANK9  BANK10  BANK1
      +1  BANK12  BANK13  BANK14  BANK15
   787 ;;      Params:         0       0       0       0       0       0       0       0       0       0       0       0       
      +0       0       0       0       0
   788 ;;      Locals:         0       1       0       0       0       0       0       0       0       0       0       0       
      +0       0       0       0       0
   789 ;;      Temps:          0       2       0       0       0       0       0       0       0       0       0       0       
      +0       0       0       0       0
   790 ;;      Totals:         0       3       0       0       0       0       0       0       0       0       0       0       
      +0       0       0       0       0
   791 ;;Total ram usage:        3 bytes
   792 ;; Hardware stack levels used:    1
   793 ;; Hardware stack levels required when called:    5
   794 ;; This function calls:
   795 ;;		Nothing
   796 ;; This function is called by:
   797 ;;		_LCD_String
   798 ;; This function uses a non-reentrant model
   799 ;;
   800                           
   801                           	psect	text5
   802  001550                     __ptext5:
   803                           	opt callstack 0
   804  001550                     _LCD_Char:
   805                           	opt callstack 24
   806                           
   807                           ;incstack = 0
   808                           ;LCD_Char@char_data stored from wreg
   809  001550  0100               	movlb	0	; () banked
   810  001552  6F62               	movwf	LCD_Char@char_data& (0+255),b
   811                           
   812                           ;F:/SV3_HK2/DoAn2/MPLABXProjects/I2CHandCodeAndCompute.X/lcd.c: 50:     PORTBbits.RB7 = 
      +                          char_data >> 7;
   813  001554  0100               	movlb	0	; () banked
   814  001556  6B60               	clrf	??_LCD_Char& (0+255),b
   815  001558  AF62               	btfss	LCD_Char@char_data& (0+255),7,b
   816  00155A  D001               	bra	u1015
   817  00155C  2B60               	incf	??_LCD_Char& (0+255),f,b
   818  00155E                     u1015:
   819  00155E  3360               	rrcf	??_LCD_Char& (0+255),f,b
   820  001560  3360               	rrcf	??_LCD_Char& (0+255),f,b
   821  001562  5081               	movf	3969,w,c	;volatile
   822  001564  1960               	xorwf	??_LCD_Char& (0+255),w,b
   823  001566  0B7F               	andlw	-129
   824  001568  1960               	xorwf	??_LCD_Char& (0+255),w,b
   825  00156A  6E81               	movwf	3969,c	;volatile
   826                           
   827                           ;F:/SV3_HK2/DoAn2/MPLABXProjects/I2CHandCodeAndCompute.X/lcd.c: 51:     PORTBbits.RB6 = 
      +                          char_data >> 6;
   828  00156C  C062  F060         	movff	LCD_Char@char_data,??_LCD_Char
   829  001570  0E06               	movlw	6
   830  001572  6F61               	movwf	(??_LCD_Char+1)& (0+255),b
   831  001574                     u1025:
   832  001574  90D8               	bcf	status,0,c
   833  001576  3360               	rrcf	??_LCD_Char& (0+255),f,b
   834  001578  2F61               	decfsz	(??_LCD_Char+1)& (0+255),f,b
   835  00157A  D7FC               	goto	u1025
   836  00157C  3B60               	swapf	??_LCD_Char& (0+255),f,b
   837  00157E  4760               	rlncf	??_LCD_Char& (0+255),f,b
   838  001580  4760               	rlncf	??_LCD_Char& (0+255),f,b
   839  001582  5081               	movf	3969,w,c	;volatile
   840  001584  1960               	xorwf	??_LCD_Char& (0+255),w,b
   841  001586  0BBF               	andlw	-65
   842  001588  1960               	xorwf	??_LCD_Char& (0+255),w,b
   843  00158A  6E81               	movwf	3969,c	;volatile
   844                           
   845                           ;F:/SV3_HK2/DoAn2/MPLABXProjects/I2CHandCodeAndCompute.X/lcd.c: 52:     PORTBbits.RB5 = 
      +                          char_data >> 5;
   846  00158C  C062  F060         	movff	LCD_Char@char_data,??_LCD_Char
   847  001590  0E05               	movlw	5
   848  001592  6F61               	movwf	(??_LCD_Char+1)& (0+255),b
   849  001594                     u1035:
   850  001594  90D8               	bcf	status,0,c
   851  001596  3360               	rrcf	??_LCD_Char& (0+255),f,b
   852  001598  2F61               	decfsz	(??_LCD_Char+1)& (0+255),f,b
   853  00159A  D7FC               	goto	u1035
   854  00159C  3B60               	swapf	??_LCD_Char& (0+255),f,b
   855  00159E  4760               	rlncf	??_LCD_Char& (0+255),f,b
   856  0015A0  5081               	movf	3969,w,c	;volatile
   857  0015A2  1960               	xorwf	??_LCD_Char& (0+255),w,b
   858  0015A4  0BDF               	andlw	-33
   859  0015A6  1960               	xorwf	??_LCD_Char& (0+255),w,b
   860  0015A8  6E81               	movwf	3969,c	;volatile
   861                           
   862                           ;F:/SV3_HK2/DoAn2/MPLABXProjects/I2CHandCodeAndCompute.X/lcd.c: 53:     PORTBbits.RB4 = 
      +                          char_data >> 4;
   863  0015AA  C062  F060         	movff	LCD_Char@char_data,??_LCD_Char
   864  0015AE  3B60               	swapf	??_LCD_Char& (0+255),f,b
   865  0015B0  0E0F               	movlw	15
   866  0015B2  1760               	andwf	??_LCD_Char& (0+255),f,b
   867  0015B4  3B60               	swapf	??_LCD_Char& (0+255),f,b
   868  0015B6  5081               	movf	3969,w,c	;volatile
   869  0015B8  1960               	xorwf	??_LCD_Char& (0+255),w,b
   870  0015BA  0BEF               	andlw	-17
   871  0015BC  1960               	xorwf	??_LCD_Char& (0+255),w,b
   872  0015BE  6E81               	movwf	3969,c	;volatile
   873                           
   874                           ; BSR set to: 0
   875                           ;F:/SV3_HK2/DoAn2/MPLABXProjects/I2CHandCodeAndCompute.X/lcd.c: 54:     PORTCbits.RC0 = 
      +                          1;
   876  0015C0  8082               	bsf	3970,0,c	;volatile
   877                           
   878                           ; BSR set to: 0
   879                           ;F:/SV3_HK2/DoAn2/MPLABXProjects/I2CHandCodeAndCompute.X/lcd.c: 55:     PORTCbits.RC1 = 
      +                          1;
   880  0015C2  8282               	bsf	3970,1,c	;volatile
   881                           
   882                           ; BSR set to: 0
   883                           ;F:/SV3_HK2/DoAn2/MPLABXProjects/I2CHandCodeAndCompute.X/lcd.c: 56:     _delay((unsigned
      +                           long)((1)*(10000000/4000.0)));
   884  0015C4  0E04               	movlw	4
   885  0015C6  0100               	movlb	0	; () banked
   886  0015C8  6F60               	movwf	??_LCD_Char& (0+255),b
   887  0015CA  0E3D               	movlw	61
   888  0015CC                     u1627:
   889  0015CC  2EE8               	decfsz	wreg,f,c
   890  0015CE  D7FE               	bra	u1627
   891  0015D0  2F60               	decfsz	??_LCD_Char& (0+255),f,b
   892  0015D2  D7FC               	bra	u1627
   893  0015D4  D000               	nop2	
   894                           
   895                           ;F:/SV3_HK2/DoAn2/MPLABXProjects/I2CHandCodeAndCompute.X/lcd.c: 57:     PORTCbits.RC1 = 
      +                          0;
   896  0015D6  9282               	bcf	3970,1,c	;volatile
   897                           
   898                           ;F:/SV3_HK2/DoAn2/MPLABXProjects/I2CHandCodeAndCompute.X/lcd.c: 58:     _delay((unsigned
      +                           long)((2)*(10000000/4000.0)));
   899  0015D8  0E07               	movlw	7
   900  0015DA  0100               	movlb	0	; () banked
   901  0015DC  6F60               	movwf	??_LCD_Char& (0+255),b
   902  0015DE  0E7D               	movlw	125
   903  0015E0                     u1637:
   904  0015E0  2EE8               	decfsz	wreg,f,c
   905  0015E2  D7FE               	bra	u1637
   906  0015E4  2F60               	decfsz	??_LCD_Char& (0+255),f,b
   907  0015E6  D7FC               	bra	u1637
   908                           
   909                           ;F:/SV3_HK2/DoAn2/MPLABXProjects/I2CHandCodeAndCompute.X/lcd.c: 60:     PORTBbits.RB7 = 
      +                          char_data >> 3;
   910  0015E8  C062  F060         	movff	LCD_Char@char_data,??_LCD_Char
   911  0015EC  0100               	movlb	0	; () banked
   912  0015EE  90D8               	bcf	status,0,c
   913  0015F0  3360               	rrcf	??_LCD_Char& (0+255),f,b
   914  0015F2  90D8               	bcf	status,0,c
   915  0015F4  3360               	rrcf	??_LCD_Char& (0+255),f,b
   916  0015F6  90D8               	bcf	status,0,c
   917  0015F8  3360               	rrcf	??_LCD_Char& (0+255),f,b
   918  0015FA  3360               	rrcf	??_LCD_Char& (0+255),f,b
   919  0015FC  3360               	rrcf	??_LCD_Char& (0+255),f,b
   920  0015FE  5081               	movf	3969,w,c	;volatile
   921  001600  1960               	xorwf	??_LCD_Char& (0+255),w,b
   922  001602  0B7F               	andlw	-129
   923  001604  1960               	xorwf	??_LCD_Char& (0+255),w,b
   924  001606  6E81               	movwf	3969,c	;volatile
   925                           
   926                           ;F:/SV3_HK2/DoAn2/MPLABXProjects/I2CHandCodeAndCompute.X/lcd.c: 61:     PORTBbits.RB6 = 
      +                          char_data >> 2;
   927  001608  C062  F060         	movff	LCD_Char@char_data,??_LCD_Char
   928  00160C  90D8               	bcf	status,0,c
   929  00160E  3360               	rrcf	??_LCD_Char& (0+255),f,b
   930  001610  90D8               	bcf	status,0,c
   931  001612  3360               	rrcf	??_LCD_Char& (0+255),f,b
   932  001614  3B60               	swapf	??_LCD_Char& (0+255),f,b
   933  001616  4760               	rlncf	??_LCD_Char& (0+255),f,b
   934  001618  4760               	rlncf	??_LCD_Char& (0+255),f,b
   935  00161A  5081               	movf	3969,w,c	;volatile
   936  00161C  1960               	xorwf	??_LCD_Char& (0+255),w,b
   937  00161E  0BBF               	andlw	-65
   938  001620  1960               	xorwf	??_LCD_Char& (0+255),w,b
   939  001622  6E81               	movwf	3969,c	;volatile
   940                           
   941                           ;F:/SV3_HK2/DoAn2/MPLABXProjects/I2CHandCodeAndCompute.X/lcd.c: 62:     PORTBbits.RB5 = 
      +                          char_data >> 1;
   942  001624  C062  F060         	movff	LCD_Char@char_data,??_LCD_Char
   943  001628  90D8               	bcf	status,0,c
   944  00162A  3360               	rrcf	??_LCD_Char& (0+255),f,b
   945  00162C  3B60               	swapf	??_LCD_Char& (0+255),f,b
   946  00162E  4760               	rlncf	??_LCD_Char& (0+255),f,b
   947  001630  5081               	movf	3969,w,c	;volatile
   948  001632  1960               	xorwf	??_LCD_Char& (0+255),w,b
   949  001634  0BDF               	andlw	-33
   950  001636  1960               	xorwf	??_LCD_Char& (0+255),w,b
   951  001638  6E81               	movwf	3969,c	;volatile
   952                           
   953                           ; BSR set to: 0
   954                           ;F:/SV3_HK2/DoAn2/MPLABXProjects/I2CHandCodeAndCompute.X/lcd.c: 63:     PORTBbits.RB4 = 
      +                          char_data;
   955  00163A  B162               	btfsc	LCD_Char@char_data& (0+255),0,b
   956  00163C  D002               	bra	u1045
   957  00163E  9881               	bcf	3969,4,c	;volatile
   958  001640  D001               	bra	u1046
   959  001642                     u1045:
   960  001642  8881               	bsf	3969,4,c	;volatile
   961  001644                     u1046:
   962                           
   963                           ;F:/SV3_HK2/DoAn2/MPLABXProjects/I2CHandCodeAndCompute.X/lcd.c: 64:     PORTCbits.RC1 = 
      +                          1;
   964  001644  8282               	bsf	3970,1,c	;volatile
   965                           
   966                           ;F:/SV3_HK2/DoAn2/MPLABXProjects/I2CHandCodeAndCompute.X/lcd.c: 65:     _delay((unsigned
      +                           long)((1)*(10000000/4000.0)));
   967  001646  0E04               	movlw	4
   968  001648  0100               	movlb	0	; () banked
   969  00164A  6F60               	movwf	??_LCD_Char& (0+255),b
   970  00164C  0E3D               	movlw	61
   971  00164E                     u1647:
   972  00164E  2EE8               	decfsz	wreg,f,c
   973  001650  D7FE               	bra	u1647
   974  001652  2F60               	decfsz	??_LCD_Char& (0+255),f,b
   975  001654  D7FC               	bra	u1647
   976  001656  D000               	nop2	
   977                           
   978                           ;F:/SV3_HK2/DoAn2/MPLABXProjects/I2CHandCodeAndCompute.X/lcd.c: 66:     PORTCbits.RC1 = 
      +                          0;
   979  001658  9282               	bcf	3970,1,c	;volatile
   980                           
   981                           ;F:/SV3_HK2/DoAn2/MPLABXProjects/I2CHandCodeAndCompute.X/lcd.c: 67:     _delay((unsigned
      +                           long)((5)*(10000000/4000.0)));
   982  00165A  0E11               	movlw	17
   983  00165C  0100               	movlb	0	; () banked
   984  00165E  6F60               	movwf	??_LCD_Char& (0+255),b
   985  001660  0E3A               	movlw	58
   986  001662                     u1657:
   987  001662  2EE8               	decfsz	wreg,f,c
   988  001664  D7FE               	bra	u1657
   989  001666  2F60               	decfsz	??_LCD_Char& (0+255),f,b
   990  001668  D7FC               	bra	u1657
   991  00166A  F000               	nop	
   992  00166C  0012               	return		;funcret
   993  00166E                     __end_of_LCD_Char:
   994                           	opt callstack 0
   995                           
   996 ;; *************** function _LCD_Init *****************
   997 ;; Defined at:
   998 ;;		line 5 in file "F:/SV3_HK2/DoAn2/MPLABXProjects/I2CHandCodeAndCompute.X/lcd.c"
   999 ;; Parameters:    Size  Location     Type
  1000 ;;		None
  1001 ;; Auto vars:     Size  Location     Type
  1002 ;;		None
  1003 ;; Return value:  Size  Location     Type
  1004 ;;                  1    wreg      void 
  1005 ;; Registers used:
  1006 ;;		wreg, status,2, status,0, cstack
  1007 ;; Tracked objects:
  1008 ;;		On entry : 0/0
  1009 ;;		On exit  : 0/0
  1010 ;;		Unchanged: 0/0
  1011 ;; Data sizes:     COMRAM   BANK0   BANK1   BANK2   BANK3   BANK4   BANK5   BANK6   BANK7   BANK8   BANK9  BANK10  BANK1
      +1  BANK12  BANK13  BANK14  BANK15
  1012 ;;      Params:         0       0       0       0       0       0       0       0       0       0       0       0       
      +0       0       0       0       0
  1013 ;;      Locals:         0       0       0       0       0       0       0       0       0       0       0       0       
      +0       0       0       0       0
  1014 ;;      Temps:          0       1       0       0       0       0       0       0       0       0       0       0       
      +0       0       0       0       0
  1015 ;;      Totals:         0       1       0       0       0       0       0       0       0       0       0       0       
      +0       0       0       0       0
  1016 ;;Total ram usage:        1 bytes
  1017 ;; Hardware stack levels used:    1
  1018 ;; Hardware stack levels required when called:    6
  1019 ;; This function calls:
  1020 ;;		_LCD_Command
  1021 ;; This function is called by:
  1022 ;;		_main
  1023 ;; This function uses a non-reentrant model
  1024 ;;
  1025                           
  1026                           	psect	text6
  1027  001D20                     __ptext6:
  1028                           	opt callstack 0
  1029  001D20                     _LCD_Init:
  1030                           	opt callstack 24
  1031                           
  1032                           ;F:/SV3_HK2/DoAn2/MPLABXProjects/I2CHandCodeAndCompute.X/lcd.c: 6:     TRISCbits.RC0 = 0
      +                          ;
  1033                           
  1034                           ;incstack = 0
  1035  001D20  9094               	bcf	3988,0,c	;volatile
  1036                           
  1037                           ;F:/SV3_HK2/DoAn2/MPLABXProjects/I2CHandCodeAndCompute.X/lcd.c: 7:     TRISCbits.RC1 = 0
      +                          ;
  1038  001D22  9294               	bcf	3988,1,c	;volatile
  1039                           
  1040                           ;F:/SV3_HK2/DoAn2/MPLABXProjects/I2CHandCodeAndCompute.X/lcd.c: 9:     TRISBbits.RB4 = 0
      +                          ;
  1041  001D24  9893               	bcf	3987,4,c	;volatile
  1042                           
  1043                           ;F:/SV3_HK2/DoAn2/MPLABXProjects/I2CHandCodeAndCompute.X/lcd.c: 10:     TRISBbits.RB5 = 
      +                          0;
  1044  001D26  9A93               	bcf	3987,5,c	;volatile
  1045                           
  1046                           ;F:/SV3_HK2/DoAn2/MPLABXProjects/I2CHandCodeAndCompute.X/lcd.c: 11:     TRISBbits.RB6 = 
      +                          0;
  1047  001D28  9C93               	bcf	3987,6,c	;volatile
  1048                           
  1049                           ;F:/SV3_HK2/DoAn2/MPLABXProjects/I2CHandCodeAndCompute.X/lcd.c: 12:     TRISBbits.RB7 = 
      +                          0;
  1050  001D2A  9E93               	bcf	3987,7,c	;volatile
  1051                           
  1052                           ;F:/SV3_HK2/DoAn2/MPLABXProjects/I2CHandCodeAndCompute.X/lcd.c: 15:     _delay((unsigned
      +                           long)((20)*(10000000/4000.0)));
  1053  001D2C  0E41               	movlw	65
  1054  001D2E  0100               	movlb	0	; () banked
  1055  001D30  6F64               	movwf	??_LCD_Init& (0+255),b
  1056  001D32  0EEE               	movlw	238
  1057  001D34                     u1667:
  1058  001D34  2EE8               	decfsz	wreg,f,c
  1059  001D36  D7FE               	bra	u1667
  1060  001D38  2F64               	decfsz	??_LCD_Init& (0+255),f,b
  1061  001D3A  D7FC               	bra	u1667
  1062  001D3C  F000               	nop	
  1063                           
  1064                           ;F:/SV3_HK2/DoAn2/MPLABXProjects/I2CHandCodeAndCompute.X/lcd.c: 16:     LCD_Command(0x02
      +                          );
  1065  001D3E  0E02               	movlw	2
  1066  001D40  EC37  F00B         	call	_LCD_Command
  1067                           
  1068                           ;F:/SV3_HK2/DoAn2/MPLABXProjects/I2CHandCodeAndCompute.X/lcd.c: 17:     LCD_Command(0x28
      +                          );
  1069  001D44  0E28               	movlw	40
  1070  001D46  EC37  F00B         	call	_LCD_Command
  1071                           
  1072                           ;F:/SV3_HK2/DoAn2/MPLABXProjects/I2CHandCodeAndCompute.X/lcd.c: 18:     LCD_Command(0x0C
      +                          );
  1073  001D4A  0E0C               	movlw	12
  1074  001D4C  EC37  F00B         	call	_LCD_Command
  1075                           
  1076                           ;F:/SV3_HK2/DoAn2/MPLABXProjects/I2CHandCodeAndCompute.X/lcd.c: 19:     LCD_Command(0x06
      +                          );
  1077  001D50  0E06               	movlw	6
  1078  001D52  EC37  F00B         	call	_LCD_Command
  1079                           
  1080                           ;F:/SV3_HK2/DoAn2/MPLABXProjects/I2CHandCodeAndCompute.X/lcd.c: 20:     LCD_Command(0x01
      +                          );
  1081  001D56  0E01               	movlw	1
  1082  001D58  EC37  F00B         	call	_LCD_Command
  1083                           
  1084                           ;F:/SV3_HK2/DoAn2/MPLABXProjects/I2CHandCodeAndCompute.X/lcd.c: 21:     LCD_Command(0x80
      +                          );
  1085  001D5C  0E80               	movlw	128
  1086  001D5E  EC37  F00B         	call	_LCD_Command
  1087  001D62  0012               	return		;funcret
  1088  001D64                     __end_of_LCD_Init:
  1089                           	opt callstack 0
  1090                           
  1091 ;; *************** function _LCD_Command *****************
  1092 ;; Defined at:
  1093 ;;		line 25 in file "F:/SV3_HK2/DoAn2/MPLABXProjects/I2CHandCodeAndCompute.X/lcd.c"
  1094 ;; Parameters:    Size  Location     Type
  1095 ;;  cmnd            1    wreg     unsigned char 
  1096 ;; Auto vars:     Size  Location     Type
  1097 ;;  cmnd            1    3[BANK0 ] unsigned char 
  1098 ;;  LCD_Port        1    0        unsigned char 
  1099 ;; Return value:  Size  Location     Type
  1100 ;;                  1    wreg      void 
  1101 ;; Registers used:
  1102 ;;		wreg, status,2, status,0
  1103 ;; Tracked objects:
  1104 ;;		On entry : 0/0
  1105 ;;		On exit  : 0/0
  1106 ;;		Unchanged: 0/0
  1107 ;; Data sizes:     COMRAM   BANK0   BANK1   BANK2   BANK3   BANK4   BANK5   BANK6   BANK7   BANK8   BANK9  BANK10  BANK1
      +1  BANK12  BANK13  BANK14  BANK15
  1108 ;;      Params:         0       0       0       0       0       0       0       0       0       0       0       0       
      +0       0       0       0       0
  1109 ;;      Locals:         0       2       0       0       0       0       0       0       0       0       0       0       
      +0       0       0       0       0
  1110 ;;      Temps:          0       2       0       0       0       0       0       0       0       0       0       0       
      +0       0       0       0       0
  1111 ;;      Totals:         0       4       0       0       0       0       0       0       0       0       0       0       
      +0       0       0       0       0
  1112 ;;Total ram usage:        4 bytes
  1113 ;; Hardware stack levels used:    1
  1114 ;; Hardware stack levels required when called:    5
  1115 ;; This function calls:
  1116 ;;		Nothing
  1117 ;; This function is called by:
  1118 ;;		_LCD_Init
  1119 ;; This function uses a non-reentrant model
  1120 ;;
  1121                           
  1122                           	psect	text7
  1123  00166E                     __ptext7:
  1124                           	opt callstack 0
  1125  00166E                     _LCD_Command:
  1126                           	opt callstack 24
  1127                           
  1128                           ;incstack = 0
  1129                           ;LCD_Command@cmnd stored from wreg
  1130  00166E  0100               	movlb	0	; () banked
  1131  001670  6F63               	movwf	LCD_Command@cmnd& (0+255),b
  1132                           
  1133                           ;F:/SV3_HK2/DoAn2/MPLABXProjects/I2CHandCodeAndCompute.X/lcd.c: 27:     PORTBbits.RB7 = 
      +                          cmnd >> 7;
  1134  001672  0100               	movlb	0	; () banked
  1135  001674  6B60               	clrf	??_LCD_Command& (0+255),b
  1136  001676  AF63               	btfss	LCD_Command@cmnd& (0+255),7,b
  1137  001678  D001               	bra	u975
  1138  00167A  2B60               	incf	??_LCD_Command& (0+255),f,b
  1139  00167C                     u975:
  1140  00167C  3360               	rrcf	??_LCD_Command& (0+255),f,b
  1141  00167E  3360               	rrcf	??_LCD_Command& (0+255),f,b
  1142  001680  5081               	movf	3969,w,c	;volatile
  1143  001682  1960               	xorwf	??_LCD_Command& (0+255),w,b
  1144  001684  0B7F               	andlw	-129
  1145  001686  1960               	xorwf	??_LCD_Command& (0+255),w,b
  1146  001688  6E81               	movwf	3969,c	;volatile
  1147                           
  1148                           ; BSR set to: 0
  1149                           ;F:/SV3_HK2/DoAn2/MPLABXProjects/I2CHandCodeAndCompute.X/lcd.c: 28:     PORTBbits.RB6 = 
      +                          cmnd >> 6;
  1150  00168A  C063  F060         	movff	LCD_Command@cmnd,??_LCD_Command
  1151  00168E  0E06               	movlw	6
  1152  001690  6F61               	movwf	(??_LCD_Command+1)& (0+255),b
  1153  001692                     u985:
  1154  001692  90D8               	bcf	status,0,c
  1155  001694  3360               	rrcf	??_LCD_Command& (0+255),f,b
  1156  001696  2F61               	decfsz	(??_LCD_Command+1)& (0+255),f,b
  1157  001698  D7FC               	goto	u985
  1158  00169A  3B60               	swapf	??_LCD_Command& (0+255),f,b
  1159  00169C  4760               	rlncf	??_LCD_Command& (0+255),f,b
  1160  00169E  4760               	rlncf	??_LCD_Command& (0+255),f,b
  1161  0016A0  5081               	movf	3969,w,c	;volatile
  1162  0016A2  1960               	xorwf	??_LCD_Command& (0+255),w,b
  1163  0016A4  0BBF               	andlw	-65
  1164  0016A6  1960               	xorwf	??_LCD_Command& (0+255),w,b
  1165  0016A8  6E81               	movwf	3969,c	;volatile
  1166                           
  1167                           ; BSR set to: 0
  1168                           ;F:/SV3_HK2/DoAn2/MPLABXProjects/I2CHandCodeAndCompute.X/lcd.c: 29:     PORTBbits.RB5 = 
      +                          cmnd >> 5;
  1169  0016AA  C063  F060         	movff	LCD_Command@cmnd,??_LCD_Command
  1170  0016AE  0E05               	movlw	5
  1171  0016B0  6F61               	movwf	(??_LCD_Command+1)& (0+255),b
  1172  0016B2                     u995:
  1173  0016B2  90D8               	bcf	status,0,c
  1174  0016B4  3360               	rrcf	??_LCD_Command& (0+255),f,b
  1175  0016B6  2F61               	decfsz	(??_LCD_Command+1)& (0+255),f,b
  1176  0016B8  D7FC               	goto	u995
  1177  0016BA  3B60               	swapf	??_LCD_Command& (0+255),f,b
  1178  0016BC  4760               	rlncf	??_LCD_Command& (0+255),f,b
  1179  0016BE  5081               	movf	3969,w,c	;volatile
  1180  0016C0  1960               	xorwf	??_LCD_Command& (0+255),w,b
  1181  0016C2  0BDF               	andlw	-33
  1182  0016C4  1960               	xorwf	??_LCD_Command& (0+255),w,b
  1183  0016C6  6E81               	movwf	3969,c	;volatile
  1184                           
  1185                           ; BSR set to: 0
  1186                           ;F:/SV3_HK2/DoAn2/MPLABXProjects/I2CHandCodeAndCompute.X/lcd.c: 30:     PORTBbits.RB4 = 
      +                          cmnd >> 4;
  1187  0016C8  C063  F060         	movff	LCD_Command@cmnd,??_LCD_Command
  1188  0016CC  3B60               	swapf	??_LCD_Command& (0+255),f,b
  1189  0016CE  0E0F               	movlw	15
  1190  0016D0  1760               	andwf	??_LCD_Command& (0+255),f,b
  1191  0016D2  3B60               	swapf	??_LCD_Command& (0+255),f,b
  1192  0016D4  5081               	movf	3969,w,c	;volatile
  1193  0016D6  1960               	xorwf	??_LCD_Command& (0+255),w,b
  1194  0016D8  0BEF               	andlw	-17
  1195  0016DA  1960               	xorwf	??_LCD_Command& (0+255),w,b
  1196  0016DC  6E81               	movwf	3969,c	;volatile
  1197                           
  1198                           ; BSR set to: 0
  1199                           ;F:/SV3_HK2/DoAn2/MPLABXProjects/I2CHandCodeAndCompute.X/lcd.c: 31:     PORTCbits.RC0 = 
      +                          0;
  1200  0016DE  9082               	bcf	3970,0,c	;volatile
  1201                           
  1202                           ; BSR set to: 0
  1203                           ;F:/SV3_HK2/DoAn2/MPLABXProjects/I2CHandCodeAndCompute.X/lcd.c: 32:     PORTCbits.RC1 = 
      +                          1;
  1204  0016E0  8282               	bsf	3970,1,c	;volatile
  1205                           
  1206                           ; BSR set to: 0
  1207                           ;F:/SV3_HK2/DoAn2/MPLABXProjects/I2CHandCodeAndCompute.X/lcd.c: 33:     _delay((unsigned
      +                           long)((1)*(10000000/4000.0)));
  1208  0016E2  0E04               	movlw	4
  1209  0016E4  0100               	movlb	0	; () banked
  1210  0016E6  6F60               	movwf	??_LCD_Command& (0+255),b
  1211  0016E8  0E3D               	movlw	61
  1212  0016EA                     u1677:
  1213  0016EA  2EE8               	decfsz	wreg,f,c
  1214  0016EC  D7FE               	bra	u1677
  1215  0016EE  2F60               	decfsz	??_LCD_Command& (0+255),f,b
  1216  0016F0  D7FC               	bra	u1677
  1217  0016F2  D000               	nop2	
  1218                           
  1219                           ;F:/SV3_HK2/DoAn2/MPLABXProjects/I2CHandCodeAndCompute.X/lcd.c: 34:     PORTCbits.RC1 = 
      +                          0;
  1220  0016F4  9282               	bcf	3970,1,c	;volatile
  1221                           
  1222                           ;F:/SV3_HK2/DoAn2/MPLABXProjects/I2CHandCodeAndCompute.X/lcd.c: 35:     _delay((unsigned
      +                           long)((2)*(10000000/4000.0)));
  1223  0016F6  0E07               	movlw	7
  1224  0016F8  0100               	movlb	0	; () banked
  1225  0016FA  6F60               	movwf	??_LCD_Command& (0+255),b
  1226  0016FC  0E7D               	movlw	125
  1227  0016FE                     u1687:
  1228  0016FE  2EE8               	decfsz	wreg,f,c
  1229  001700  D7FE               	bra	u1687
  1230  001702  2F60               	decfsz	??_LCD_Command& (0+255),f,b
  1231  001704  D7FC               	bra	u1687
  1232                           
  1233                           ;F:/SV3_HK2/DoAn2/MPLABXProjects/I2CHandCodeAndCompute.X/lcd.c: 37:     PORTBbits.RB7 = 
      +                          cmnd >> 3;
  1234  001706  C063  F060         	movff	LCD_Command@cmnd,??_LCD_Command
  1235  00170A  0100               	movlb	0	; () banked
  1236  00170C  90D8               	bcf	status,0,c
  1237  00170E  3360               	rrcf	??_LCD_Command& (0+255),f,b
  1238  001710  90D8               	bcf	status,0,c
  1239  001712  3360               	rrcf	??_LCD_Command& (0+255),f,b
  1240  001714  90D8               	bcf	status,0,c
  1241  001716  3360               	rrcf	??_LCD_Command& (0+255),f,b
  1242  001718  3360               	rrcf	??_LCD_Command& (0+255),f,b
  1243  00171A  3360               	rrcf	??_LCD_Command& (0+255),f,b
  1244  00171C  5081               	movf	3969,w,c	;volatile
  1245  00171E  1960               	xorwf	??_LCD_Command& (0+255),w,b
  1246  001720  0B7F               	andlw	-129
  1247  001722  1960               	xorwf	??_LCD_Command& (0+255),w,b
  1248  001724  6E81               	movwf	3969,c	;volatile
  1249                           
  1250                           ; BSR set to: 0
  1251                           ;F:/SV3_HK2/DoAn2/MPLABXProjects/I2CHandCodeAndCompute.X/lcd.c: 38:     PORTBbits.RB6 = 
      +                          cmnd >> 2;
  1252  001726  C063  F060         	movff	LCD_Command@cmnd,??_LCD_Command
  1253  00172A  90D8               	bcf	status,0,c
  1254  00172C  3360               	rrcf	??_LCD_Command& (0+255),f,b
  1255  00172E  90D8               	bcf	status,0,c
  1256  001730  3360               	rrcf	??_LCD_Command& (0+255),f,b
  1257  001732  3B60               	swapf	??_LCD_Command& (0+255),f,b
  1258  001734  4760               	rlncf	??_LCD_Command& (0+255),f,b
  1259  001736  4760               	rlncf	??_LCD_Command& (0+255),f,b
  1260  001738  5081               	movf	3969,w,c	;volatile
  1261  00173A  1960               	xorwf	??_LCD_Command& (0+255),w,b
  1262  00173C  0BBF               	andlw	-65
  1263  00173E  1960               	xorwf	??_LCD_Command& (0+255),w,b
  1264  001740  6E81               	movwf	3969,c	;volatile
  1265                           
  1266                           ; BSR set to: 0
  1267                           ;F:/SV3_HK2/DoAn2/MPLABXProjects/I2CHandCodeAndCompute.X/lcd.c: 39:     PORTBbits.RB5 = 
      +                          cmnd >> 1;
  1268  001742  C063  F060         	movff	LCD_Command@cmnd,??_LCD_Command
  1269  001746  90D8               	bcf	status,0,c
  1270  001748  3360               	rrcf	??_LCD_Command& (0+255),f,b
  1271  00174A  3B60               	swapf	??_LCD_Command& (0+255),f,b
  1272  00174C  4760               	rlncf	??_LCD_Command& (0+255),f,b
  1273  00174E  5081               	movf	3969,w,c	;volatile
  1274  001750  1960               	xorwf	??_LCD_Command& (0+255),w,b
  1275  001752  0BDF               	andlw	-33
  1276  001754  1960               	xorwf	??_LCD_Command& (0+255),w,b
  1277  001756  6E81               	movwf	3969,c	;volatile
  1278                           
  1279                           ; BSR set to: 0
  1280                           ;F:/SV3_HK2/DoAn2/MPLABXProjects/I2CHandCodeAndCompute.X/lcd.c: 40:     PORTBbits.RB4 = 
      +                          cmnd;
  1281  001758  B163               	btfsc	LCD_Command@cmnd& (0+255),0,b
  1282  00175A  D002               	bra	u1005
  1283  00175C  9881               	bcf	3969,4,c	;volatile
  1284  00175E  D001               	bra	u1006
  1285  001760                     u1005:
  1286  001760  8881               	bsf	3969,4,c	;volatile
  1287  001762                     u1006:
  1288                           
  1289                           ;F:/SV3_HK2/DoAn2/MPLABXProjects/I2CHandCodeAndCompute.X/lcd.c: 41:     PORTCbits.RC1 = 
      +                          1;
  1290  001762  8282               	bsf	3970,1,c	;volatile
  1291                           
  1292                           ;F:/SV3_HK2/DoAn2/MPLABXProjects/I2CHandCodeAndCompute.X/lcd.c: 42:     _delay((unsigned
      +                           long)((1)*(10000000/4000.0)));
  1293  001764  0E04               	movlw	4
  1294  001766  0100               	movlb	0	; () banked
  1295  001768  6F60               	movwf	??_LCD_Command& (0+255),b
  1296  00176A  0E3D               	movlw	61
  1297  00176C                     u1697:
  1298  00176C  2EE8               	decfsz	wreg,f,c
  1299  00176E  D7FE               	bra	u1697
  1300  001770  2F60               	decfsz	??_LCD_Command& (0+255),f,b
  1301  001772  D7FC               	bra	u1697
  1302  001774  D000               	nop2	
  1303                           
  1304                           ;F:/SV3_HK2/DoAn2/MPLABXProjects/I2CHandCodeAndCompute.X/lcd.c: 43:     PORTCbits.RC1 = 
      +                          0;
  1305  001776  9282               	bcf	3970,1,c	;volatile
  1306                           
  1307                           ;F:/SV3_HK2/DoAn2/MPLABXProjects/I2CHandCodeAndCompute.X/lcd.c: 44:     _delay((unsigned
      +                           long)((5)*(10000000/4000.0)));
  1308  001778  0E11               	movlw	17
  1309  00177A  0100               	movlb	0	; () banked
  1310  00177C  6F60               	movwf	??_LCD_Command& (0+255),b
  1311  00177E  0E3A               	movlw	58
  1312  001780                     u1707:
  1313  001780  2EE8               	decfsz	wreg,f,c
  1314  001782  D7FE               	bra	u1707
  1315  001784  2F60               	decfsz	??_LCD_Command& (0+255),f,b
  1316  001786  D7FC               	bra	u1707
  1317  001788  F000               	nop	
  1318  00178A  0012               	return		;funcret
  1319  00178C                     __end_of_LCD_Command:
  1320                           	opt callstack 0
  1321                           
  1322 ;; *************** function _I2C_Master_Init *****************
  1323 ;; Defined at:
  1324 ;;		line 5 in file "F:/SV3_HK2/DoAn2/MPLABXProjects/I2CHandCodeAndCompute.X/i2c.c"
  1325 ;; Parameters:    Size  Location     Type
  1326 ;;		None
  1327 ;; Auto vars:     Size  Location     Type
  1328 ;;		None
  1329 ;; Return value:  Size  Location     Type
  1330 ;;                  1    wreg      void 
  1331 ;; Registers used:
  1332 ;;		wreg, status,2
  1333 ;; Tracked objects:
  1334 ;;		On entry : 0/0
  1335 ;;		On exit  : 0/0
  1336 ;;		Unchanged: 0/0
  1337 ;; Data sizes:     COMRAM   BANK0   BANK1   BANK2   BANK3   BANK4   BANK5   BANK6   BANK7   BANK8   BANK9  BANK10  BANK1
      +1  BANK12  BANK13  BANK14  BANK15
  1338 ;;      Params:         0       0       0       0       0       0       0       0       0       0       0       0       
      +0       0       0       0       0
  1339 ;;      Locals:         0       0       0       0       0       0       0       0       0       0       0       0       
      +0       0       0       0       0
  1340 ;;      Temps:          0       0       0       0       0       0       0       0       0       0       0       0       
      +0       0       0       0       0
  1341 ;;      Totals:         0       0       0       0       0       0       0       0       0       0       0       0       
      +0       0       0       0       0
  1342 ;;Total ram usage:        0 bytes
  1343 ;; Hardware stack levels used:    1
  1344 ;; Hardware stack levels required when called:    5
  1345 ;; This function calls:
  1346 ;;		Nothing
  1347 ;; This function is called by:
  1348 ;;		_main
  1349 ;; This function uses a non-reentrant model
  1350 ;;
  1351                           
  1352                           	psect	text8
  1353  001E1E                     __ptext8:
  1354                           	opt callstack 0
  1355  001E1E                     _I2C_Master_Init:
  1356                           	opt callstack 25
  1357                           
  1358                           ;F:/SV3_HK2/DoAn2/MPLABXProjects/I2CHandCodeAndCompute.X/i2c.c: 6:     TRISCbits.RC5 = 0
      +                          ;
  1359                           
  1360                           ;incstack = 0
  1361  001E1E  9A94               	bcf	3988,5,c	;volatile
  1362                           
  1363                           ;F:/SV3_HK2/DoAn2/MPLABXProjects/I2CHandCodeAndCompute.X/i2c.c: 7:     PORTCbits.RC5 = 0
      +                          ;
  1364  001E20  9A82               	bcf	3970,5,c	;volatile
  1365                           
  1366                           ;F:/SV3_HK2/DoAn2/MPLABXProjects/I2CHandCodeAndCompute.X/i2c.c: 8:     TRISCbits.RC3 = 1
      +                          ;
  1367  001E22  8694               	bsf	3988,3,c	;volatile
  1368                           
  1369                           ;F:/SV3_HK2/DoAn2/MPLABXProjects/I2CHandCodeAndCompute.X/i2c.c: 9:     TRISCbits.RC4 = 1
      +                          ;
  1370  001E24  8894               	bsf	3988,4,c	;volatile
  1371                           
  1372                           ;F:/SV3_HK2/DoAn2/MPLABXProjects/I2CHandCodeAndCompute.X/i2c.c: 10:     SSPSTAT = 0x3f;
  1373  001E26  0E3F               	movlw	63
  1374  001E28  6EC7               	movwf	4039,c	;volatile
  1375                           
  1376                           ;F:/SV3_HK2/DoAn2/MPLABXProjects/I2CHandCodeAndCompute.X/i2c.c: 11:     SSPCON2 = 0X00;
  1377  001E2A  0E00               	movlw	0
  1378  001E2C  6EC5               	movwf	4037,c	;volatile
  1379                           
  1380                           ;F:/SV3_HK2/DoAn2/MPLABXProjects/I2CHandCodeAndCompute.X/i2c.c: 12:     SSPCON1 = 0X18;
  1381  001E2E  0E18               	movlw	24
  1382  001E30  6EC6               	movwf	4038,c	;volatile
  1383                           
  1384                           ;F:/SV3_HK2/DoAn2/MPLABXProjects/I2CHandCodeAndCompute.X/i2c.c: 13:     SSPADD = 24;
  1385  001E32  0E18               	movlw	24
  1386  001E34  6EC8               	movwf	4040,c	;volatile
  1387                           
  1388                           ;F:/SV3_HK2/DoAn2/MPLABXProjects/I2CHandCodeAndCompute.X/i2c.c: 14:     PIR1bits.SSPIF =
      +                           0;
  1389  001E36  969E               	bcf	3998,3,c	;volatile
  1390                           
  1391                           ;F:/SV3_HK2/DoAn2/MPLABXProjects/I2CHandCodeAndCompute.X/i2c.c: 15:     SSPCON1bits.SSPE
      +                          N = 1;
  1392  001E38  8AC6               	bsf	4038,5,c	;volatile
  1393  001E3A  0012               	return		;funcret
  1394  001E3C                     __end_of_I2C_Master_Init:
  1395                           	opt callstack 0
  1396                           
  1397 ;; *************** function _timer_interrupt *****************
  1398 ;; Defined at:
  1399 ;;		line 26 in file "F:/SV3_HK2/DoAn2/MPLABXProjects/I2CHandCodeAndCompute.X/main.c"
  1400 ;; Parameters:    Size  Location     Type
  1401 ;;		None
  1402 ;; Auto vars:     Size  Location     Type
  1403 ;;  lux             2   82[COMRAM] struct .
  1404 ;; Return value:  Size  Location     Type
  1405 ;;                  1    wreg      void 
  1406 ;; Registers used:
  1407 ;;		wreg, fsr0l, fsr0h, fsr1l, fsr1h, fsr2l, fsr2h, status,2, status,0, tblptrl, tblptrh, tblptru, cstack
  1408 ;; Tracked objects:
  1409 ;;		On entry : 0/0
  1410 ;;		On exit  : 0/0
  1411 ;;		Unchanged: 0/0
  1412 ;; Data sizes:     COMRAM   BANK0   BANK1   BANK2   BANK3   BANK4   BANK5   BANK6   BANK7   BANK8   BANK9  BANK10  BANK1
      +1  BANK12  BANK13  BANK14  BANK15
  1413 ;;      Params:         0       0       0       0       0       0       0       0       0       0       0       0       
      +0       0       0       0       0
  1414 ;;      Locals:         2       0       0       0       0       0       0       0       0       0       0       0       
      +0       0       0       0       0
  1415 ;;      Temps:         13       0       0       0       0       0       0       0       0       0       0       0       
      +0       0       0       0       0
  1416 ;;      Totals:        15       0       0       0       0       0       0       0       0       0       0       0       
      +0       0       0       0       0
  1417 ;;Total ram usage:       15 bytes
  1418 ;; Hardware stack levels used:    1
  1419 ;; Hardware stack levels required when called:    4
  1420 ;; This function calls:
  1421 ;;		_printValue
  1422 ;;		_readByte
  1423 ;;		i1_setup_timer0
  1424 ;; This function is called by:
  1425 ;;		Interrupt level 1
  1426 ;; This function uses a non-reentrant model
  1427 ;;
  1428                           
  1429                           	psect	intcodelo
  1430  000018                     __pintcodelo:
  1431                           	opt callstack 0
  1432  000018                     _timer_interrupt:
  1433                           	opt callstack 24
  1434                           
  1435                           ;incstack = 0
  1436  000018  805B               	bsf	btemp,0,c	;set compiler interrupt flag (level 1)
  1437  00001A  CFD8 F046          	movff	status,??_timer_interrupt
  1438  00001E  CFE8 F047          	movff	wreg,??_timer_interrupt+1
  1439  000022  CFE0 F048          	movff	bsr,??_timer_interrupt+2
  1440  000026  CFE9 F049          	movff	fsr0l,??_timer_interrupt+3
  1441  00002A  CFEA F04A          	movff	fsr0h,??_timer_interrupt+4
  1442  00002E  CFE1 F04B          	movff	fsr1l,??_timer_interrupt+5
  1443  000032  CFE2 F04C          	movff	fsr1h,??_timer_interrupt+6
  1444  000036  CFD9 F04D          	movff	fsr2l,??_timer_interrupt+7
  1445  00003A  CFDA F04E          	movff	fsr2h,??_timer_interrupt+8
  1446  00003E  CFF6 F04F          	movff	tblptrl,??_timer_interrupt+9
  1447  000042  CFF7 F050          	movff	tblptrh,??_timer_interrupt+10
  1448  000046  CFF8 F051          	movff	tblptru,??_timer_interrupt+11
  1449  00004A  CFF5 F052          	movff	tablat,??_timer_interrupt+12
  1450                           
  1451                           ;F:/SV3_HK2/DoAn2/MPLABXProjects/I2CHandCodeAndCompute.X/main.c: 27:     INTCONbits.TMR0
      +                          IF = 0;
  1452  00004E  94F2               	bcf	4082,2,c	;volatile
  1453                           
  1454                           ;F:/SV3_HK2/DoAn2/MPLABXProjects/I2CHandCodeAndCompute.X/main.c: 28:     byteRead lux;;F
      +                          :/SV3_HK2/DoAn2/MPLABXProjects/I2CHandCodeAndCompute.X/main.c: 29:     lux = readByte();
  1455  000050  EC66  F00E         	call	_readByte	;wreg free
  1456  000054  C004  F053         	movff	?_readByte,timer_interrupt@lux
  1457  000058  C005  F054         	movff	?_readByte+1,timer_interrupt@lux+1
  1458                           
  1459                           ;F:/SV3_HK2/DoAn2/MPLABXProjects/I2CHandCodeAndCompute.X/main.c: 31:     printValue(lux)
      +                          ;
  1460  00005C  C053  F032         	movff	timer_interrupt@lux,printValue@lux
  1461  000060  C054  F033         	movff	timer_interrupt@lux+1,printValue@lux+1
  1462  000064  EC50  F009         	call	_printValue	;wreg free
  1463                           
  1464                           ;F:/SV3_HK2/DoAn2/MPLABXProjects/I2CHandCodeAndCompute.X/main.c: 32:     setup_timer0();
  1465  000068  EC38  F00F         	call	i1_setup_timer0	;wreg free
  1466  00006C  C052  FFF5         	movff	??_timer_interrupt+12,tablat
  1467  000070  C051  FFF8         	movff	??_timer_interrupt+11,tblptru
  1468  000074  C050  FFF7         	movff	??_timer_interrupt+10,tblptrh
  1469  000078  C04F  FFF6         	movff	??_timer_interrupt+9,tblptrl
  1470  00007C  C04E  FFDA         	movff	??_timer_interrupt+8,fsr2h
  1471  000080  C04D  FFD9         	movff	??_timer_interrupt+7,fsr2l
  1472  000084  C04C  FFE2         	movff	??_timer_interrupt+6,fsr1h
  1473  000088  C04B  FFE1         	movff	??_timer_interrupt+5,fsr1l
  1474  00008C  C04A  FFEA         	movff	??_timer_interrupt+4,fsr0h
  1475  000090  C049  FFE9         	movff	??_timer_interrupt+3,fsr0l
  1476  000094  C048  FFE0         	movff	??_timer_interrupt+2,bsr
  1477  000098  C047  FFE8         	movff	??_timer_interrupt+1,wreg
  1478  00009C  C046  FFD8         	movff	??_timer_interrupt,status
  1479  0000A0  905B               	bcf	btemp,0,c	;clear compiler interrupt flag (level 1)
  1480  0000A2  0010               	retfie	
  1481  0000A4                     __end_of_timer_interrupt:
  1482                           	opt callstack 0
  1483                           
  1484 ;; *************** function i1_setup_timer0 *****************
  1485 ;; Defined at:
  1486 ;;		line 25 in file "F:/SV3_HK2/DoAn2/MPLABXProjects/I2CHandCodeAndCompute.X/interrupt.c"
  1487 ;; Parameters:    Size  Location     Type
  1488 ;;		None
  1489 ;; Auto vars:     Size  Location     Type
  1490 ;;		None
  1491 ;; Return value:  Size  Location     Type
  1492 ;;                  1    wreg      void 
  1493 ;; Registers used:
  1494 ;;		wreg, status,2
  1495 ;; Tracked objects:
  1496 ;;		On entry : 0/0
  1497 ;;		On exit  : 0/0
  1498 ;;		Unchanged: 0/0
  1499 ;; Data sizes:     COMRAM   BANK0   BANK1   BANK2   BANK3   BANK4   BANK5   BANK6   BANK7   BANK8   BANK9  BANK10  BANK1
      +1  BANK12  BANK13  BANK14  BANK15
  1500 ;;      Params:         0       0       0       0       0       0       0       0       0       0       0       0       
      +0       0       0       0       0
  1501 ;;      Locals:         0       0       0       0       0       0       0       0       0       0       0       0       
      +0       0       0       0       0
  1502 ;;      Temps:          0       0       0       0       0       0       0       0       0       0       0       0       
      +0       0       0       0       0
  1503 ;;      Totals:         0       0       0       0       0       0       0       0       0       0       0       0       
      +0       0       0       0       0
  1504 ;;Total ram usage:        0 bytes
  1505 ;; Hardware stack levels used:    1
  1506 ;; This function calls:
  1507 ;;		Nothing
  1508 ;; This function is called by:
  1509 ;;		_timer_interrupt
  1510 ;; This function uses a non-reentrant model
  1511 ;;
  1512                           
  1513                           	psect	text10
  1514  001E70                     __ptext10:
  1515                           	opt callstack 0
  1516  001E70                     i1_setup_timer0:
  1517                           	opt callstack 27
  1518                           
  1519                           ;F:/SV3_HK2/DoAn2/MPLABXProjects/I2CHandCodeAndCompute.X/interrupt.c: 27:     T0CONbits.
      +                          TMR0ON = 0;
  1520                           
  1521                           ;incstack = 0
  1522  001E70  9ED5               	bcf	4053,7,c	;volatile
  1523                           
  1524                           ;F:/SV3_HK2/DoAn2/MPLABXProjects/I2CHandCodeAndCompute.X/interrupt.c: 28:     TMR0H = 0x
      +                          67;
  1525  001E72  0E67               	movlw	103
  1526  001E74  6ED7               	movwf	4055,c	;volatile
  1527                           
  1528                           ;F:/SV3_HK2/DoAn2/MPLABXProjects/I2CHandCodeAndCompute.X/interrupt.c: 29:     TMR0L = 0x
      +                          69;
  1529  001E76  0E69               	movlw	105
  1530  001E78  6ED6               	movwf	4054,c	;volatile
  1531                           
  1532                           ;F:/SV3_HK2/DoAn2/MPLABXProjects/I2CHandCodeAndCompute.X/interrupt.c: 30:     T0CONbits.
      +                          TMR0ON = 1;
  1533  001E7A  8ED5               	bsf	4053,7,c	;volatile
  1534  001E7C  0012               	return		;funcret
  1535  001E7E                     __end_ofi1_setup_timer0:
  1536                           	opt callstack 0
  1537                           
  1538 ;; *************** function _readByte *****************
  1539 ;; Defined at:
  1540 ;;		line 55 in file "F:/SV3_HK2/DoAn2/MPLABXProjects/I2CHandCodeAndCompute.X/main.c"
  1541 ;; Parameters:    Size  Location     Type
  1542 ;;		None
  1543 ;; Auto vars:     Size  Location     Type
  1544 ;;  byte            2    7[COMRAM] struct .
  1545 ;; Return value:  Size  Location     Type
  1546 ;;                  2    3[COMRAM] struct .
  1547 ;; Registers used:
  1548 ;;		wreg, status,2, status,0, cstack
  1549 ;; Tracked objects:
  1550 ;;		On entry : 0/0
  1551 ;;		On exit  : 0/0
  1552 ;;		Unchanged: 0/0
  1553 ;; Data sizes:     COMRAM   BANK0   BANK1   BANK2   BANK3   BANK4   BANK5   BANK6   BANK7   BANK8   BANK9  BANK10  BANK1
      +1  BANK12  BANK13  BANK14  BANK15
  1554 ;;      Params:         2       0       0       0       0       0       0       0       0       0       0       0       
      +0       0       0       0       0
  1555 ;;      Locals:         2       0       0       0       0       0       0       0       0       0       0       0       
      +0       0       0       0       0
  1556 ;;      Temps:          2       0       0       0       0       0       0       0       0       0       0       0       
      +0       0       0       0       0
  1557 ;;      Totals:         6       0       0       0       0       0       0       0       0       0       0       0       
      +0       0       0       0       0
  1558 ;;Total ram usage:        6 bytes
  1559 ;; Hardware stack levels used:    1
  1560 ;; Hardware stack levels required when called:    2
  1561 ;; This function calls:
  1562 ;;		_I2C_Master_Read
  1563 ;;		_I2C_Master_Start
  1564 ;;		_I2C_Master_Stop
  1565 ;;		_I2C_Master_Write
  1566 ;; This function is called by:
  1567 ;;		_timer_interrupt
  1568 ;; This function uses a non-reentrant model
  1569 ;;
  1570                           
  1571                           	psect	text11
  1572  001CCC                     __ptext11:
  1573                           	opt callstack 0
  1574  001CCC                     _readByte:
  1575                           	opt callstack 25
  1576                           
  1577                           ;F:/SV3_HK2/DoAn2/MPLABXProjects/I2CHandCodeAndCompute.X/main.c: 56:     byteRead byte;;
      +                          F:/SV3_HK2/DoAn2/MPLABXProjects/I2CHandCodeAndCompute.X/main.c: 57:     I2C_Master_Start
      +                          ();
  1578                           
  1579                           ;incstack = 0
  1580  001CCC  EC47  F00F         	call	_I2C_Master_Start	;wreg free
  1581                           
  1582                           ;F:/SV3_HK2/DoAn2/MPLABXProjects/I2CHandCodeAndCompute.X/main.c: 58:     I2C_Master_Writ
      +                          e(0x46);
  1583  001CD0  0E46               	movlw	70
  1584  001CD2  EC1E  F00F         	call	_I2C_Master_Write
  1585                           
  1586                           ;F:/SV3_HK2/DoAn2/MPLABXProjects/I2CHandCodeAndCompute.X/main.c: 59:     I2C_Master_Writ
      +                          e(0x10);
  1587  001CD6  0E10               	movlw	16
  1588  001CD8  EC1E  F00F         	call	_I2C_Master_Write
  1589                           
  1590                           ;F:/SV3_HK2/DoAn2/MPLABXProjects/I2CHandCodeAndCompute.X/main.c: 60:     I2C_Master_Stop
      +                          ();
  1591  001CDC  EC43  F00F         	call	_I2C_Master_Stop	;wreg free
  1592                           
  1593                           ;F:/SV3_HK2/DoAn2/MPLABXProjects/I2CHandCodeAndCompute.X/main.c: 61:     _delay((unsigne
      +                          d long)((180)*(10000000/4000.0)));
  1594  001CE0  0E03               	movlw	3
  1595  001CE2  6E07               	movwf	(??_readByte+1)& (0+255),c
  1596  001CE4  0E49               	movlw	73
  1597  001CE6  6E06               	movwf	??_readByte& (0+255),c
  1598  001CE8  0E66               	movlw	102
  1599  001CEA                     i1u171_27:
  1600  001CEA  2EE8               	decfsz	wreg,f,c
  1601  001CEC  D7FE               	bra	i1u171_27
  1602  001CEE  2E06               	decfsz	??_readByte& (0+255),f,c
  1603  001CF0  D7FC               	bra	i1u171_27
  1604  001CF2  2E07               	decfsz	(??_readByte+1)& (0+255),f,c
  1605  001CF4  D7FA               	bra	i1u171_27
  1606  001CF6  D000               	nop2	
  1607                           
  1608                           ;F:/SV3_HK2/DoAn2/MPLABXProjects/I2CHandCodeAndCompute.X/main.c: 62:     I2C_Master_Star
      +                          t();
  1609  001CF8  EC47  F00F         	call	_I2C_Master_Start	;wreg free
  1610                           
  1611                           ;F:/SV3_HK2/DoAn2/MPLABXProjects/I2CHandCodeAndCompute.X/main.c: 63:     I2C_Master_Writ
      +                          e(0x47);
  1612  001CFC  0E47               	movlw	71
  1613  001CFE  EC1E  F00F         	call	_I2C_Master_Write
  1614                           
  1615                           ;F:/SV3_HK2/DoAn2/MPLABXProjects/I2CHandCodeAndCompute.X/main.c: 64:     byte.highbyte =
      +                           I2C_Master_Read(1);
  1616  001D02  0E01               	movlw	1
  1617  001D04  ECB2  F00E         	call	_I2C_Master_Read
  1618  001D08  6E08               	movwf	readByte@byte,c
  1619                           
  1620                           ;F:/SV3_HK2/DoAn2/MPLABXProjects/I2CHandCodeAndCompute.X/main.c: 65:     byte.lowbyte = 
      +                          I2C_Master_Read(0);
  1621  001D0A  0E00               	movlw	0
  1622  001D0C  ECB2  F00E         	call	_I2C_Master_Read
  1623  001D10  6E09               	movwf	readByte@byte+1,c
  1624                           
  1625                           ;F:/SV3_HK2/DoAn2/MPLABXProjects/I2CHandCodeAndCompute.X/main.c: 66:     I2C_Master_Stop
      +                          ();
  1626  001D12  EC43  F00F         	call	_I2C_Master_Stop	;wreg free
  1627                           
  1628                           ;F:/SV3_HK2/DoAn2/MPLABXProjects/I2CHandCodeAndCompute.X/main.c: 67:     return byte;
  1629  001D16  C008  F004         	movff	readByte@byte,?_readByte
  1630  001D1A  C009  F005         	movff	readByte@byte+1,?_readByte+1
  1631  001D1E  0012               	return		;funcret
  1632  001D20                     __end_of_readByte:
  1633                           	opt callstack 0
  1634                           
  1635 ;; *************** function _I2C_Master_Write *****************
  1636 ;; Defined at:
  1637 ;;		line 31 in file "F:/SV3_HK2/DoAn2/MPLABXProjects/I2CHandCodeAndCompute.X/i2c.c"
  1638 ;; Parameters:    Size  Location     Type
  1639 ;;  d               1    wreg     unsigned char 
  1640 ;; Auto vars:     Size  Location     Type
  1641 ;;  d               1    0[COMRAM] unsigned char 
  1642 ;; Return value:  Size  Location     Type
  1643 ;;                  1    wreg      void 
  1644 ;; Registers used:
  1645 ;;		wreg, cstack
  1646 ;; Tracked objects:
  1647 ;;		On entry : 0/0
  1648 ;;		On exit  : 0/0
  1649 ;;		Unchanged: 0/0
  1650 ;; Data sizes:     COMRAM   BANK0   BANK1   BANK2   BANK3   BANK4   BANK5   BANK6   BANK7   BANK8   BANK9  BANK10  BANK1
      +1  BANK12  BANK13  BANK14  BANK15
  1651 ;;      Params:         0       0       0       0       0       0       0       0       0       0       0       0       
      +0       0       0       0       0
  1652 ;;      Locals:         1       0       0       0       0       0       0       0       0       0       0       0       
      +0       0       0       0       0
  1653 ;;      Temps:          0       0       0       0       0       0       0       0       0       0       0       0       
      +0       0       0       0       0
  1654 ;;      Totals:         1       0       0       0       0       0       0       0       0       0       0       0       
      +0       0       0       0       0
  1655 ;;Total ram usage:        1 bytes
  1656 ;; Hardware stack levels used:    1
  1657 ;; Hardware stack levels required when called:    1
  1658 ;; This function calls:
  1659 ;;		_I2C_Master_Wait
  1660 ;; This function is called by:
  1661 ;;		_readByte
  1662 ;; This function uses a non-reentrant model
  1663 ;;
  1664                           
  1665                           	psect	text12
  1666  001E3C                     __ptext12:
  1667                           	opt callstack 0
  1668  001E3C                     _I2C_Master_Write:
  1669                           	opt callstack 25
  1670                           
  1671                           ;incstack = 0
  1672                           ;I2C_Master_Write@d stored from wreg
  1673  001E3C  6E01               	movwf	I2C_Master_Write@d,c
  1674                           
  1675                           ;F:/SV3_HK2/DoAn2/MPLABXProjects/I2CHandCodeAndCompute.X/i2c.c: 32:     SSPBUF = d;
  1676  001E3E  C001  FFC9         	movff	I2C_Master_Write@d,4041	;volatile
  1677  001E42                     i1l125:
  1678  001E42  B0C7               	btfsc	4039,0,c	;volatile
  1679  001E44  D7FE               	goto	i1l125
  1680  001E46                     i1u13_20:
  1681  001E46  BCC5               	btfsc	4037,6,c	;volatile
  1682  001E48  D7FE               	goto	i1u13_20
  1683                           
  1684                           ;F:/SV3_HK2/DoAn2/MPLABXProjects/I2CHandCodeAndCompute.X/i2c.c: 35:     I2C_Master_Wait(
      +                          );
  1685  001E4A  EC4B  F00F         	call	_I2C_Master_Wait	;wreg free
  1686  001E4E  0012               	return		;funcret
  1687  001E50                     __end_of_I2C_Master_Write:
  1688                           	opt callstack 0
  1689                           
  1690 ;; *************** function _I2C_Master_Stop *****************
  1691 ;; Defined at:
  1692 ;;		line 39 in file "F:/SV3_HK2/DoAn2/MPLABXProjects/I2CHandCodeAndCompute.X/i2c.c"
  1693 ;; Parameters:    Size  Location     Type
  1694 ;;		None
  1695 ;; Auto vars:     Size  Location     Type
  1696 ;;		None
  1697 ;; Return value:  Size  Location     Type
  1698 ;;                  1    wreg      void 
  1699 ;; Registers used:
  1700 ;;		cstack
  1701 ;; Tracked objects:
  1702 ;;		On entry : 0/0
  1703 ;;		On exit  : 0/0
  1704 ;;		Unchanged: 0/0
  1705 ;; Data sizes:     COMRAM   BANK0   BANK1   BANK2   BANK3   BANK4   BANK5   BANK6   BANK7   BANK8   BANK9  BANK10  BANK1
      +1  BANK12  BANK13  BANK14  BANK15
  1706 ;;      Params:         0       0       0       0       0       0       0       0       0       0       0       0       
      +0       0       0       0       0
  1707 ;;      Locals:         0       0       0       0       0       0       0       0       0       0       0       0       
      +0       0       0       0       0
  1708 ;;      Temps:          0       0       0       0       0       0       0       0       0       0       0       0       
      +0       0       0       0       0
  1709 ;;      Totals:         0       0       0       0       0       0       0       0       0       0       0       0       
      +0       0       0       0       0
  1710 ;;Total ram usage:        0 bytes
  1711 ;; Hardware stack levels used:    1
  1712 ;; Hardware stack levels required when called:    1
  1713 ;; This function calls:
  1714 ;;		_I2C_Master_Wait
  1715 ;; This function is called by:
  1716 ;;		_readByte
  1717 ;; This function uses a non-reentrant model
  1718 ;;
  1719                           
  1720                           	psect	text13
  1721  001E86                     __ptext13:
  1722                           	opt callstack 0
  1723  001E86                     _I2C_Master_Stop:
  1724                           	opt callstack 25
  1725                           
  1726                           ;F:/SV3_HK2/DoAn2/MPLABXProjects/I2CHandCodeAndCompute.X/i2c.c: 40:     SSPCON2bits.PEN 
      +                          = 1;
  1727                           
  1728                           ;incstack = 0
  1729  001E86  84C5               	bsf	4037,2,c	;volatile
  1730                           
  1731                           ;F:/SV3_HK2/DoAn2/MPLABXProjects/I2CHandCodeAndCompute.X/i2c.c: 41:     I2C_Master_Wait(
      +                          );
  1732  001E88  EC4B  F00F         	call	_I2C_Master_Wait	;wreg free
  1733  001E8C  0012               	return		;funcret
  1734  001E8E                     __end_of_I2C_Master_Stop:
  1735                           	opt callstack 0
  1736                           
  1737 ;; *************** function _I2C_Master_Start *****************
  1738 ;; Defined at:
  1739 ;;		line 25 in file "F:/SV3_HK2/DoAn2/MPLABXProjects/I2CHandCodeAndCompute.X/i2c.c"
  1740 ;; Parameters:    Size  Location     Type
  1741 ;;		None
  1742 ;; Auto vars:     Size  Location     Type
  1743 ;;		None
  1744 ;; Return value:  Size  Location     Type
  1745 ;;                  1    wreg      void 
  1746 ;; Registers used:
  1747 ;;		cstack
  1748 ;; Tracked objects:
  1749 ;;		On entry : 0/0
  1750 ;;		On exit  : 0/0
  1751 ;;		Unchanged: 0/0
  1752 ;; Data sizes:     COMRAM   BANK0   BANK1   BANK2   BANK3   BANK4   BANK5   BANK6   BANK7   BANK8   BANK9  BANK10  BANK1
      +1  BANK12  BANK13  BANK14  BANK15
  1753 ;;      Params:         0       0       0       0       0       0       0       0       0       0       0       0       
      +0       0       0       0       0
  1754 ;;      Locals:         0       0       0       0       0       0       0       0       0       0       0       0       
      +0       0       0       0       0
  1755 ;;      Temps:          0       0       0       0       0       0       0       0       0       0       0       0       
      +0       0       0       0       0
  1756 ;;      Totals:         0       0       0       0       0       0       0       0       0       0       0       0       
      +0       0       0       0       0
  1757 ;;Total ram usage:        0 bytes
  1758 ;; Hardware stack levels used:    1
  1759 ;; Hardware stack levels required when called:    1
  1760 ;; This function calls:
  1761 ;;		_I2C_Master_Wait
  1762 ;; This function is called by:
  1763 ;;		_readByte
  1764 ;; This function uses a non-reentrant model
  1765 ;;
  1766                           
  1767                           	psect	text14
  1768  001E8E                     __ptext14:
  1769                           	opt callstack 0
  1770  001E8E                     _I2C_Master_Start:
  1771                           	opt callstack 25
  1772                           
  1773                           ;F:/SV3_HK2/DoAn2/MPLABXProjects/I2CHandCodeAndCompute.X/i2c.c: 26:     SSPCON2bits.SEN 
      +                          = 1;
  1774                           
  1775                           ;incstack = 0
  1776  001E8E  80C5               	bsf	4037,0,c	;volatile
  1777                           
  1778                           ;F:/SV3_HK2/DoAn2/MPLABXProjects/I2CHandCodeAndCompute.X/i2c.c: 27:     I2C_Master_Wait(
      +                          );
  1779  001E90  EC4B  F00F         	call	_I2C_Master_Wait	;wreg free
  1780  001E94  0012               	return		;funcret
  1781  001E96                     __end_of_I2C_Master_Start:
  1782                           	opt callstack 0
  1783                           
  1784 ;; *************** function _I2C_Master_Read *****************
  1785 ;; Defined at:
  1786 ;;		line 45 in file "F:/SV3_HK2/DoAn2/MPLABXProjects/I2CHandCodeAndCompute.X/i2c.c"
  1787 ;; Parameters:    Size  Location     Type
  1788 ;;  a               1    wreg     unsigned char 
  1789 ;; Auto vars:     Size  Location     Type
  1790 ;;  a               1    1[COMRAM] unsigned char 
  1791 ;;  temp            1    2[COMRAM] unsigned char 
  1792 ;; Return value:  Size  Location     Type
  1793 ;;                  1    wreg      unsigned char 
  1794 ;; Registers used:
  1795 ;;		wreg, status,2, status,0, cstack
  1796 ;; Tracked objects:
  1797 ;;		On entry : 0/0
  1798 ;;		On exit  : 0/0
  1799 ;;		Unchanged: 0/0
  1800 ;; Data sizes:     COMRAM   BANK0   BANK1   BANK2   BANK3   BANK4   BANK5   BANK6   BANK7   BANK8   BANK9  BANK10  BANK1
      +1  BANK12  BANK13  BANK14  BANK15
  1801 ;;      Params:         0       0       0       0       0       0       0       0       0       0       0       0       
      +0       0       0       0       0
  1802 ;;      Locals:         2       0       0       0       0       0       0       0       0       0       0       0       
      +0       0       0       0       0
  1803 ;;      Temps:          1       0       0       0       0       0       0       0       0       0       0       0       
      +0       0       0       0       0
  1804 ;;      Totals:         3       0       0       0       0       0       0       0       0       0       0       0       
      +0       0       0       0       0
  1805 ;;Total ram usage:        3 bytes
  1806 ;; Hardware stack levels used:    1
  1807 ;; Hardware stack levels required when called:    1
  1808 ;; This function calls:
  1809 ;;		_I2C_Master_Wait
  1810 ;; This function is called by:
  1811 ;;		_readByte
  1812 ;; This function uses a non-reentrant model
  1813 ;;
  1814                           
  1815                           	psect	text15
  1816  001D64                     __ptext15:
  1817                           	opt callstack 0
  1818  001D64                     _I2C_Master_Read:
  1819                           	opt callstack 25
  1820                           
  1821                           ;incstack = 0
  1822                           ;I2C_Master_Read@a stored from wreg
  1823  001D64  6E02               	movwf	I2C_Master_Read@a,c
  1824                           
  1825                           ;F:/SV3_HK2/DoAn2/MPLABXProjects/I2CHandCodeAndCompute.X/i2c.c: 46:     unsigned char te
      +                          mp;;F:/SV3_HK2/DoAn2/MPLABXProjects/I2CHandCodeAndCompute.X/i2c.c: 47:     SSPCON2bits.R
      +                          CEN = 1;
  1826  001D66  86C5               	bsf	4037,3,c	;volatile
  1827                           
  1828                           ;F:/SV3_HK2/DoAn2/MPLABXProjects/I2CHandCodeAndCompute.X/i2c.c: 48:     I2C_Master_Wait(
      +                          );
  1829  001D68  EC4B  F00F         	call	_I2C_Master_Wait	;wreg free
  1830                           
  1831                           ;F:/SV3_HK2/DoAn2/MPLABXProjects/I2CHandCodeAndCompute.X/i2c.c: 49:     WREG = 0X00;
  1832  001D6C  0E00               	movlw	0
  1833  001D6E  6EE8               	movwf	wreg,c	;volatile
  1834                           
  1835                           ;F:/SV3_HK2/DoAn2/MPLABXProjects/I2CHandCodeAndCompute.X/i2c.c: 50:     SSPCON2bits.ACKD
      +                          T = (a)?0:1;
  1836  001D70  5002               	movf	I2C_Master_Read@a,w,c
  1837  001D72  A4D8               	btfss	status,2,c
  1838  001D74  D003               	goto	i1u15_20
  1839  001D76  6A01               	clrf	??_I2C_Master_Read& (0+255),c
  1840  001D78  2A01               	incf	??_I2C_Master_Read& (0+255),f,c
  1841  001D7A  D001               	goto	i1u16_28
  1842  001D7C                     i1u15_20:
  1843  001D7C  6A01               	clrf	??_I2C_Master_Read& (0+255),c
  1844  001D7E                     i1u16_28:
  1845  001D7E  3A01               	swapf	??_I2C_Master_Read,f,c
  1846  001D80  4601               	rlncf	??_I2C_Master_Read,f,c
  1847  001D82  50C5               	movf	4037,w,c	;volatile
  1848  001D84  1801               	xorwf	??_I2C_Master_Read,w,c
  1849  001D86  0BDF               	andlw	-33
  1850  001D88  1801               	xorwf	??_I2C_Master_Read,w,c
  1851  001D8A  6EC5               	movwf	4037,c	;volatile
  1852                           
  1853                           ;F:/SV3_HK2/DoAn2/MPLABXProjects/I2CHandCodeAndCompute.X/i2c.c: 51:     SSPCON2bits.ACKE
      +                          N = 1;
  1854  001D8C  88C5               	bsf	4037,4,c	;volatile
  1855                           
  1856                           ;F:/SV3_HK2/DoAn2/MPLABXProjects/I2CHandCodeAndCompute.X/i2c.c: 52:     I2C_Master_Wait(
      +                          );
  1857  001D8E  EC4B  F00F         	call	_I2C_Master_Wait	;wreg free
  1858                           
  1859                           ;F:/SV3_HK2/DoAn2/MPLABXProjects/I2CHandCodeAndCompute.X/i2c.c: 53:     temp = SSPBUF;
  1860  001D92  CFC9 F003          	movff	4041,I2C_Master_Read@temp	;volatile
  1861                           
  1862                           ;F:/SV3_HK2/DoAn2/MPLABXProjects/I2CHandCodeAndCompute.X/i2c.c: 54:     return temp;
  1863  001D96  5003               	movf	I2C_Master_Read@temp,w,c
  1864  001D98  0012               	return		;funcret
  1865  001D9A                     __end_of_I2C_Master_Read:
  1866                           	opt callstack 0
  1867                           
  1868 ;; *************** function _I2C_Master_Wait *****************
  1869 ;; Defined at:
  1870 ;;		line 19 in file "F:/SV3_HK2/DoAn2/MPLABXProjects/I2CHandCodeAndCompute.X/i2c.c"
  1871 ;; Parameters:    Size  Location     Type
  1872 ;;		None
  1873 ;; Auto vars:     Size  Location     Type
  1874 ;;		None
  1875 ;; Return value:  Size  Location     Type
  1876 ;;                  1    wreg      void 
  1877 ;; Registers used:
  1878 ;;		None
  1879 ;; Tracked objects:
  1880 ;;		On entry : 0/0
  1881 ;;		On exit  : 0/0
  1882 ;;		Unchanged: 0/0
  1883 ;; Data sizes:     COMRAM   BANK0   BANK1   BANK2   BANK3   BANK4   BANK5   BANK6   BANK7   BANK8   BANK9  BANK10  BANK1
      +1  BANK12  BANK13  BANK14  BANK15
  1884 ;;      Params:         0       0       0       0       0       0       0       0       0       0       0       0       
      +0       0       0       0       0
  1885 ;;      Locals:         0       0       0       0       0       0       0       0       0       0       0       0       
      +0       0       0       0       0
  1886 ;;      Temps:          0       0       0       0       0       0       0       0       0       0       0       0       
      +0       0       0       0       0
  1887 ;;      Totals:         0       0       0       0       0       0       0       0       0       0       0       0       
      +0       0       0       0       0
  1888 ;;Total ram usage:        0 bytes
  1889 ;; Hardware stack levels used:    1
  1890 ;; This function calls:
  1891 ;;		Nothing
  1892 ;; This function is called by:
  1893 ;;		_I2C_Master_Start
  1894 ;;		_I2C_Master_Write
  1895 ;;		_I2C_Master_Stop
  1896 ;;		_I2C_Master_Read
  1897 ;;		_I2C_Master_Restart
  1898 ;; This function uses a non-reentrant model
  1899 ;;
  1900                           
  1901                           	psect	text16
  1902  001E96                     __ptext16:
  1903                           	opt callstack 0
  1904  001E96                     _I2C_Master_Wait:
  1905                           	opt callstack 25
  1906                           
  1907                           ;F:/SV3_HK2/DoAn2/MPLABXProjects/I2CHandCodeAndCompute.X/i2c.c: 20:     while(PIR1bits.S
      +                          SPIF != 1);
  1908                           
  1909                           ;incstack = 0
  1910  001E96  A69E               	btfss	3998,3,c	;volatile
  1911  001E98  D7FE               	goto	_I2C_Master_Wait
  1912                           
  1913                           ;F:/SV3_HK2/DoAn2/MPLABXProjects/I2CHandCodeAndCompute.X/i2c.c: 21:     PIR1bits.SSPIF =
      +                           0;
  1914  001E9A  969E               	bcf	3998,3,c	;volatile
  1915                           
  1916                           ;F:/SV3_HK2/DoAn2/MPLABXProjects/I2CHandCodeAndCompute.X/i2c.c: 22:     return;
  1917  001E9C  0012               	return		;funcret
  1918  001E9E                     __end_of_I2C_Master_Wait:
  1919                           	opt callstack 0
  1920                           
  1921 ;; *************** function _printValue *****************
  1922 ;; Defined at:
  1923 ;;		line 70 in file "F:/SV3_HK2/DoAn2/MPLABXProjects/I2CHandCodeAndCompute.X/main.c"
  1924 ;; Parameters:    Size  Location     Type
  1925 ;;  lux             2   49[COMRAM] struct .
  1926 ;; Auto vars:     Size  Location     Type
  1927 ;;  number          2   61[COMRAM] int 
  1928 ;;  str             6   55[COMRAM] unsigned char [6]
  1929 ;;  value           4   65[COMRAM] long 
  1930 ;;  i               2   63[COMRAM] int 
  1931 ;; Return value:  Size  Location     Type
  1932 ;;                  1    wreg      void 
  1933 ;; Registers used:
  1934 ;;		wreg, fsr0l, fsr0h, fsr1l, fsr1h, fsr2l, fsr2h, status,2, status,0, tblptrl, tblptrh, tblptru, cstack
  1935 ;; Tracked objects:
  1936 ;;		On entry : 0/0
  1937 ;;		On exit  : 0/0
  1938 ;;		Unchanged: 0/0
  1939 ;; Data sizes:     COMRAM   BANK0   BANK1   BANK2   BANK3   BANK4   BANK5   BANK6   BANK7   BANK8   BANK9  BANK10  BANK1
      +1  BANK12  BANK13  BANK14  BANK15
  1940 ;;      Params:         2       0       0       0       0       0       0       0       0       0       0       0       
      +0       0       0       0       0
  1941 ;;      Locals:        14       0       0       0       0       0       0       0       0       0       0       0       
      +0       0       0       0       0
  1942 ;;      Temps:          4       0       0       0       0       0       0       0       0       0       0       0       
      +0       0       0       0       0
  1943 ;;      Totals:        20       0       0       0       0       0       0       0       0       0       0       0       
      +0       0       0       0       0
  1944 ;;Total ram usage:       20 bytes
  1945 ;; Hardware stack levels used:    1
  1946 ;; Hardware stack levels required when called:    3
  1947 ;; This function calls:
  1948 ;;		_LCD_String_xy
  1949 ;;		___aldiv
  1950 ;;		___almod
  1951 ;;		___fldiv
  1952 ;;		___fltol
  1953 ;;		___xxtofl
  1954 ;;		i1_LCD_String
  1955 ;; This function is called by:
  1956 ;;		_timer_interrupt
  1957 ;; This function uses a non-reentrant model
  1958 ;;
  1959                           
  1960                           	psect	text17
  1961  0012A0                     __ptext17:
  1962                           	opt callstack 0
  1963  0012A0                     _printValue:
  1964                           	opt callstack 24
  1965                           
  1966                           ;F:/SV3_HK2/DoAn2/MPLABXProjects/I2CHandCodeAndCompute.X/main.c: 72:     char str[6] = {
      +                          '0','0','0','0','0'};
  1967                           
  1968                           ;incstack = 0
  1969  0012A0  EE20  F055         	lfsr	2,printValue@F4581
  1970  0012A4  EE10  F038         	lfsr	1,printValue@str
  1971  0012A8  0E05               	movlw	5
  1972  0012AA                     i1u157_21:
  1973  0012AA  CFDB FFE3          	movff	plusw2,plusw1
  1974  0012AE  06E8               	decf	wreg,f,c
  1975  0012B0  E2FC               	bc	i1u157_21
  1976                           
  1977                           ;F:/SV3_HK2/DoAn2/MPLABXProjects/I2CHandCodeAndCompute.X/main.c: 73:     value = (long i
      +                          nt)(lux.highbyte)*256;
  1978  0012B2  C032  F034         	movff	printValue@lux,??_printValue
  1979  0012B6  6A35               	clrf	(??_printValue+1)& (0+255),c
  1980  0012B8  6A36               	clrf	(??_printValue+2)& (0+255),c
  1981  0012BA  6A37               	clrf	(??_printValue+3)& (0+255),c
  1982  0012BC  C036  F037         	movff	??_printValue+2,??_printValue+3
  1983  0012C0  C035  F036         	movff	??_printValue+1,??_printValue+2
  1984  0012C4  C034  F035         	movff	??_printValue,??_printValue+1
  1985  0012C8  6A34               	clrf	??_printValue,c
  1986  0012CA  C034  F042         	movff	??_printValue,printValue@value
  1987  0012CE  C035  F043         	movff	??_printValue+1,printValue@value+1
  1988  0012D2  C036  F044         	movff	??_printValue+2,printValue@value+2
  1989  0012D6  C037  F045         	movff	??_printValue+3,printValue@value+3
  1990                           
  1991                           ;F:/SV3_HK2/DoAn2/MPLABXProjects/I2CHandCodeAndCompute.X/main.c: 74:     value = (long i
      +                          nt)(lux.lowbyte) + value;
  1992  0012DA  5033               	movf	printValue@lux+1,w,c
  1993  0012DC  2442               	addwf	printValue@value,w,c
  1994  0012DE  6E42               	movwf	printValue@value,c
  1995  0012E0  0E00               	movlw	0
  1996  0012E2  2043               	addwfc	printValue@value+1,w,c
  1997  0012E4  6E43               	movwf	printValue@value+1,c
  1998  0012E6  0E00               	movlw	0
  1999  0012E8  2044               	addwfc	printValue@value+2,w,c
  2000  0012EA  6E44               	movwf	printValue@value+2,c
  2001  0012EC  0E00               	movlw	0
  2002  0012EE  2045               	addwfc	printValue@value+3,w,c
  2003  0012F0  6E45               	movwf	printValue@value+3,c
  2004                           
  2005                           ;F:/SV3_HK2/DoAn2/MPLABXProjects/I2CHandCodeAndCompute.X/main.c: 75:     value = value /
      +                          1.2;
  2006  0012F2  0E9A               	movlw	154
  2007  0012F4  6E13               	movwf	___fldiv@a,c
  2008  0012F6  0E99               	movlw	153
  2009  0012F8  6E14               	movwf	___fldiv@a+1,c
  2010  0012FA  0E99               	movlw	153
  2011  0012FC  6E15               	movwf	___fldiv@a+2,c
  2012  0012FE  0E3F               	movlw	63
  2013  001300  6E16               	movwf	___fldiv@a+3,c
  2014  001302  C042  F001         	movff	printValue@value,___xxtofl@val
  2015  001306  C043  F002         	movff	printValue@value+1,___xxtofl@val+1
  2016  00130A  C044  F003         	movff	printValue@value+2,___xxtofl@val+2
  2017  00130E  C045  F004         	movff	printValue@value+3,___xxtofl@val+3
  2018  001312  0E01               	movlw	1
  2019  001314  EC08  F00A         	call	___xxtofl
  2020  001318  C001  F00F         	movff	?___xxtofl,___fldiv@b
  2021  00131C  C002  F010         	movff	?___xxtofl+1,___fldiv@b+1
  2022  001320  C003  F011         	movff	?___xxtofl+2,___fldiv@b+2
  2023  001324  C004  F012         	movff	?___xxtofl+3,___fldiv@b+3
  2024  001328  EC0C  F008         	call	___fldiv	;wreg free
  2025  00132C  C00F  F028         	movff	?___fldiv,___fltol@f1
  2026  001330  C010  F029         	movff	?___fldiv+1,___fltol@f1+1
  2027  001334  C011  F02A         	movff	?___fldiv+2,___fltol@f1+2
  2028  001338  C012  F02B         	movff	?___fldiv+3,___fltol@f1+3
  2029  00133C  EC3A  F00D         	call	___fltol	;wreg free
  2030  001340  C028  F042         	movff	?___fltol,printValue@value
  2031  001344  C029  F043         	movff	?___fltol+1,printValue@value+1
  2032  001348  C02A  F044         	movff	?___fltol+2,printValue@value+2
  2033  00134C  C02B  F045         	movff	?___fltol+3,printValue@value+3
  2034                           
  2035                           ;F:/SV3_HK2/DoAn2/MPLABXProjects/I2CHandCodeAndCompute.X/main.c: 76:     int i = 4;
  2036  001350  0E00               	movlw	0
  2037  001352  6E41               	movwf	printValue@i+1,c
  2038  001354  0E04               	movlw	4
  2039  001356  6E40               	movwf	printValue@i,c
  2040  001358                     i1l1954:
  2041                           
  2042                           ;F:/SV3_HK2/DoAn2/MPLABXProjects/I2CHandCodeAndCompute.X/main.c: 77:     for (;value > 0
      +                          ; ){
  2043  001358  BE45               	btfsc	printValue@value+3,7,c
  2044  00135A  D04A               	goto	i1l1966
  2045  00135C  5045               	movf	printValue@value+3,w,c
  2046  00135E  1044               	iorwf	printValue@value+2,w,c
  2047  001360  1043               	iorwf	printValue@value+1,w,c
  2048  001362  E103               	bnz	i1l1958
  2049  001364  0442               	decf	printValue@value,w,c
  2050  001366  A0D8               	btfss	status,0,c
  2051  001368  D043               	goto	i1l1966
  2052  00136A                     i1l1958:
  2053                           
  2054                           ;F:/SV3_HK2/DoAn2/MPLABXProjects/I2CHandCodeAndCompute.X/main.c: 78:         int number 
      +                          = value%10;
  2055  00136A  C042  F001         	movff	printValue@value,___almod@dividend
  2056  00136E  C043  F002         	movff	printValue@value+1,___almod@dividend+1
  2057  001372  C044  F003         	movff	printValue@value+2,___almod@dividend+2
  2058  001376  C045  F004         	movff	printValue@value+3,___almod@dividend+3
  2059  00137A  0E0A               	movlw	10
  2060  00137C  6E05               	movwf	___almod@divisor,c
  2061  00137E  0E00               	movlw	0
  2062  001380  6E06               	movwf	___almod@divisor+1,c
  2063  001382  0E00               	movlw	0
  2064  001384  6E07               	movwf	___almod@divisor+2,c
  2065  001386  0E00               	movlw	0
  2066  001388  6E08               	movwf	___almod@divisor+3,c
  2067  00138A  EC97  F00D         	call	___almod	;wreg free
  2068  00138E  C001  F03E         	movff	?___almod,printValue@number
  2069  001392  C002  F03F         	movff	?___almod+1,printValue@number+1
  2070                           
  2071                           ;F:/SV3_HK2/DoAn2/MPLABXProjects/I2CHandCodeAndCompute.X/main.c: 79:         value = val
      +                          ue/10;
  2072  001396  C042  F001         	movff	printValue@value,___aldiv@dividend
  2073  00139A  C043  F002         	movff	printValue@value+1,___aldiv@dividend+1
  2074  00139E  C044  F003         	movff	printValue@value+2,___aldiv@dividend+2
  2075  0013A2  C045  F004         	movff	printValue@value+3,___aldiv@dividend+3
  2076  0013A6  0E0A               	movlw	10
  2077  0013A8  6E05               	movwf	___aldiv@divisor,c
  2078  0013AA  0E00               	movlw	0
  2079  0013AC  6E06               	movwf	___aldiv@divisor+1,c
  2080  0013AE  0E00               	movlw	0
  2081  0013B0  6E07               	movwf	___aldiv@divisor+2,c
  2082  0013B2  0E00               	movlw	0
  2083  0013B4  6E08               	movwf	___aldiv@divisor+3,c
  2084  0013B6  ECD4  F00C         	call	___aldiv	;wreg free
  2085  0013BA  C001  F042         	movff	?___aldiv,printValue@value
  2086  0013BE  C002  F043         	movff	?___aldiv+1,printValue@value+1
  2087  0013C2  C003  F044         	movff	?___aldiv+2,printValue@value+2
  2088  0013C6  C004  F045         	movff	?___aldiv+3,printValue@value+3
  2089                           
  2090                           ;F:/SV3_HK2/DoAn2/MPLABXProjects/I2CHandCodeAndCompute.X/main.c: 80:         str[i] = nu
      +                          mber + str[i];
  2091  0013CA  0E38               	movlw	low printValue@str
  2092  0013CC  2440               	addwf	printValue@i,w,c
  2093  0013CE  6ED9               	movwf	fsr2l,c
  2094  0013D0  0E00               	movlw	high printValue@str
  2095  0013D2  2041               	addwfc	printValue@i+1,w,c
  2096  0013D4  6EDA               	movwf	fsr2h,c
  2097  0013D6  0E38               	movlw	low printValue@str
  2098  0013D8  2440               	addwf	printValue@i,w,c
  2099  0013DA  6EE1               	movwf	fsr1l,c
  2100  0013DC  0E00               	movlw	high printValue@str
  2101  0013DE  2041               	addwfc	printValue@i+1,w,c
  2102  0013E0  6EE2               	movwf	fsr1h,c
  2103  0013E2  50E7               	movf	indf1,w,c
  2104  0013E4  243E               	addwf	printValue@number,w,c
  2105  0013E6  6EDF               	movwf	indf2,c
  2106                           
  2107                           ;F:/SV3_HK2/DoAn2/MPLABXProjects/I2CHandCodeAndCompute.X/main.c: 81:         i--;
  2108  0013E8  0640               	decf	printValue@i,f,c
  2109  0013EA  A0D8               	btfss	status,0,c
  2110  0013EC  0641               	decf	printValue@i+1,f,c
  2111  0013EE  D7B4               	goto	i1l1954
  2112  0013F0                     i1l1966:
  2113                           
  2114                           ;F:/SV3_HK2/DoAn2/MPLABXProjects/I2CHandCodeAndCompute.X/main.c: 85:     LCD_String_xy(1
      +                          ,7,str);
  2115  0013F0  0E07               	movlw	7
  2116  0013F2  6E0A               	movwf	LCD_String_xy@pos,c
  2117  0013F4  0E38               	movlw	low printValue@str
  2118  0013F6  6E0B               	movwf	LCD_String_xy@str,c
  2119  0013F8  0E00               	movlw	high printValue@str
  2120  0013FA  6E0C               	movwf	LCD_String_xy@str+1,c
  2121  0013FC  0E01               	movlw	1
  2122  0013FE  ECCD  F00E         	call	_LCD_String_xy
  2123                           
  2124                           ;F:/SV3_HK2/DoAn2/MPLABXProjects/I2CHandCodeAndCompute.X/main.c: 86:     LCD_String(" LU
      +                          X");
  2125  001402  0E11               	movlw	low STR_2
  2126  001404  6E04               	movwf	i1LCD_String@str,c
  2127  001406  0E10               	movlw	high STR_2
  2128  001408  6E05               	movwf	i1LCD_String@str+1,c
  2129  00140A  EC2B  F00E         	call	i1_LCD_String	;wreg free
  2130  00140E  0012               	return		;funcret
  2131  001410                     __end_of_printValue:
  2132                           	opt callstack 0
  2133                           
  2134 ;; *************** function ___xxtofl *****************
  2135 ;; Defined at:
  2136 ;;		line 10 in file "C:\Program Files (x86)\Microchip\xc8\v2.05\pic\sources\c99\common\xxtofl.c"
  2137 ;; Parameters:    Size  Location     Type
  2138 ;;  sign            1    wreg     unsigned char 
  2139 ;;  val             4    0[COMRAM] long 
  2140 ;; Auto vars:     Size  Location     Type
  2141 ;;  sign            1    8[COMRAM] unsigned char 
  2142 ;;  arg             4   10[COMRAM] unsigned long 
  2143 ;;  exp             1    9[COMRAM] unsigned char 
  2144 ;; Return value:  Size  Location     Type
  2145 ;;                  4    0[COMRAM] unsigned char 
  2146 ;; Registers used:
  2147 ;;		wreg, status,2, status,0
  2148 ;; Tracked objects:
  2149 ;;		On entry : 0/0
  2150 ;;		On exit  : 0/0
  2151 ;;		Unchanged: 0/0
  2152 ;; Data sizes:     COMRAM   BANK0   BANK1   BANK2   BANK3   BANK4   BANK5   BANK6   BANK7   BANK8   BANK9  BANK10  BANK1
      +1  BANK12  BANK13  BANK14  BANK15
  2153 ;;      Params:         4       0       0       0       0       0       0       0       0       0       0       0       
      +0       0       0       0       0
  2154 ;;      Locals:         6       0       0       0       0       0       0       0       0       0       0       0       
      +0       0       0       0       0
  2155 ;;      Temps:          4       0       0       0       0       0       0       0       0       0       0       0       
      +0       0       0       0       0
  2156 ;;      Totals:        14       0       0       0       0       0       0       0       0       0       0       0       
      +0       0       0       0       0
  2157 ;;Total ram usage:       14 bytes
  2158 ;; Hardware stack levels used:    1
  2159 ;; This function calls:
  2160 ;;		Nothing
  2161 ;; This function is called by:
  2162 ;;		_printValue
  2163 ;; This function uses a non-reentrant model
  2164 ;;
  2165                           
  2166                           	psect	text18
  2167  001410                     __ptext18:
  2168                           	opt callstack 0
  2169  001410                     ___xxtofl:
  2170                           	opt callstack 26
  2171                           
  2172                           ;incstack = 0
  2173                           ;___xxtofl@sign stored from wreg
  2174  001410  6E09               	movwf	___xxtofl@sign,c
  2175  001412  5009               	movf	___xxtofl@sign,w,c
  2176  001414  A4D8               	btfss	status,2,c
  2177  001416  AE04               	btfss	___xxtofl@val+3,7,c
  2178  001418  D01A               	goto	i1l826
  2179  00141A  C001  F005         	movff	___xxtofl@val,??___xxtofl
  2180  00141E  C002  F006         	movff	___xxtofl@val+1,??___xxtofl+1
  2181  001422  C003  F007         	movff	___xxtofl@val+2,??___xxtofl+2
  2182  001426  C004  F008         	movff	___xxtofl@val+3,??___xxtofl+3
  2183  00142A  1E05               	comf	??___xxtofl,f,c
  2184  00142C  1E06               	comf	??___xxtofl+1,f,c
  2185  00142E  1E07               	comf	??___xxtofl+2,f,c
  2186  001430  1E08               	comf	??___xxtofl+3,f,c
  2187  001432  2A05               	incf	??___xxtofl,f,c
  2188  001434  0E00               	movlw	0
  2189  001436  2206               	addwfc	??___xxtofl+1,f,c
  2190  001438  2207               	addwfc	??___xxtofl+2,f,c
  2191  00143A  2208               	addwfc	??___xxtofl+3,f,c
  2192  00143C  C005  F00B         	movff	??___xxtofl,___xxtofl@arg
  2193  001440  C006  F00C         	movff	??___xxtofl+1,___xxtofl@arg+1
  2194  001444  C007  F00D         	movff	??___xxtofl+2,___xxtofl@arg+2
  2195  001448  C008  F00E         	movff	??___xxtofl+3,___xxtofl@arg+3
  2196  00144C  D008               	goto	i1l1882
  2197  00144E                     i1l826:
  2198  00144E  C001  F00B         	movff	___xxtofl@val,___xxtofl@arg
  2199  001452  C002  F00C         	movff	___xxtofl@val+1,___xxtofl@arg+1
  2200  001456  C003  F00D         	movff	___xxtofl@val+2,___xxtofl@arg+2
  2201  00145A  C004  F00E         	movff	___xxtofl@val+3,___xxtofl@arg+3
  2202  00145E                     i1l1882:
  2203  00145E  5001               	movf	___xxtofl@val,w,c
  2204  001460  1002               	iorwf	___xxtofl@val+1,w,c
  2205  001462  1003               	iorwf	___xxtofl@val+2,w,c
  2206  001464  1004               	iorwf	___xxtofl@val+3,w,c
  2207  001466  A4D8               	btfss	status,2,c
  2208  001468  D009               	goto	i1l1888
  2209  00146A  0E00               	movlw	0
  2210  00146C  6E01               	movwf	?___xxtofl,c
  2211  00146E  0E00               	movlw	0
  2212  001470  6E02               	movwf	?___xxtofl+1,c
  2213  001472  0E00               	movlw	0
  2214  001474  6E03               	movwf	?___xxtofl+2,c
  2215  001476  0E00               	movlw	0
  2216  001478  6E04               	movwf	?___xxtofl+3,c
  2217  00147A  0012               	return	
  2218  00147C                     i1l1888:
  2219  00147C  0E96               	movlw	150
  2220  00147E  6E0A               	movwf	___xxtofl@exp,c
  2221  001480  D006               	goto	i1l1892
  2222  001482                     i1l1890:
  2223  001482  2A0A               	incf	___xxtofl@exp,f,c
  2224  001484  90D8               	bcf	status,0,c
  2225  001486  320E               	rrcf	___xxtofl@arg+3,f,c
  2226  001488  320D               	rrcf	___xxtofl@arg+2,f,c
  2227  00148A  320C               	rrcf	___xxtofl@arg+1,f,c
  2228  00148C  320B               	rrcf	___xxtofl@arg,f,c
  2229  00148E                     i1l1892:
  2230  00148E  0E00               	movlw	0
  2231  001490  140B               	andwf	___xxtofl@arg,w,c
  2232  001492  6E05               	movwf	??___xxtofl& (0+255),c
  2233  001494  0E00               	movlw	0
  2234  001496  140C               	andwf	___xxtofl@arg+1,w,c
  2235  001498  6E06               	movwf	(??___xxtofl+1)& (0+255),c
  2236  00149A  0E00               	movlw	0
  2237  00149C  140D               	andwf	___xxtofl@arg+2,w,c
  2238  00149E  6E07               	movwf	(??___xxtofl+2)& (0+255),c
  2239  0014A0  0EFE               	movlw	254
  2240  0014A2  140E               	andwf	___xxtofl@arg+3,w,c
  2241  0014A4  6E08               	movwf	(??___xxtofl+3)& (0+255),c
  2242  0014A6  5005               	movf	??___xxtofl,w,c
  2243  0014A8  1006               	iorwf	??___xxtofl+1,w,c
  2244  0014AA  1007               	iorwf	??___xxtofl+2,w,c
  2245  0014AC  1008               	iorwf	??___xxtofl+3,w,c
  2246  0014AE  B4D8               	btfsc	status,2,c
  2247  0014B0  D00D               	goto	i1l833
  2248  0014B2  D7E7               	goto	i1l1890
  2249  0014B4                     i1l1894:
  2250  0014B4  2A0A               	incf	___xxtofl@exp,f,c
  2251  0014B6  0E01               	movlw	1
  2252  0014B8  260B               	addwf	___xxtofl@arg,f,c
  2253  0014BA  0E00               	movlw	0
  2254  0014BC  220C               	addwfc	___xxtofl@arg+1,f,c
  2255  0014BE  220D               	addwfc	___xxtofl@arg+2,f,c
  2256  0014C0  220E               	addwfc	___xxtofl@arg+3,f,c
  2257  0014C2  90D8               	bcf	status,0,c
  2258  0014C4  320E               	rrcf	___xxtofl@arg+3,f,c
  2259  0014C6  320D               	rrcf	___xxtofl@arg+2,f,c
  2260  0014C8  320C               	rrcf	___xxtofl@arg+1,f,c
  2261  0014CA  320B               	rrcf	___xxtofl@arg,f,c
  2262  0014CC                     i1l833:
  2263  0014CC  0E00               	movlw	0
  2264  0014CE  140B               	andwf	___xxtofl@arg,w,c
  2265  0014D0  6E05               	movwf	??___xxtofl& (0+255),c
  2266  0014D2  0E00               	movlw	0
  2267  0014D4  140C               	andwf	___xxtofl@arg+1,w,c
  2268  0014D6  6E06               	movwf	(??___xxtofl+1)& (0+255),c
  2269  0014D8  0E00               	movlw	0
  2270  0014DA  140D               	andwf	___xxtofl@arg+2,w,c
  2271  0014DC  6E07               	movwf	(??___xxtofl+2)& (0+255),c
  2272  0014DE  0EFF               	movlw	255
  2273  0014E0  140E               	andwf	___xxtofl@arg+3,w,c
  2274  0014E2  6E08               	movwf	(??___xxtofl+3)& (0+255),c
  2275  0014E4  5005               	movf	??___xxtofl,w,c
  2276  0014E6  1006               	iorwf	??___xxtofl+1,w,c
  2277  0014E8  1007               	iorwf	??___xxtofl+2,w,c
  2278  0014EA  1008               	iorwf	??___xxtofl+3,w,c
  2279  0014EC  B4D8               	btfsc	status,2,c
  2280  0014EE  D007               	goto	i1l1902
  2281  0014F0  D7E1               	goto	i1l1894
  2282  0014F2                     i1l1900:
  2283  0014F2  060A               	decf	___xxtofl@exp,f,c
  2284  0014F4  90D8               	bcf	status,0,c
  2285  0014F6  360B               	rlcf	___xxtofl@arg,f,c
  2286  0014F8  360C               	rlcf	___xxtofl@arg+1,f,c
  2287  0014FA  360D               	rlcf	___xxtofl@arg+2,f,c
  2288  0014FC  360E               	rlcf	___xxtofl@arg+3,f,c
  2289  0014FE                     i1l1902:
  2290  0014FE  BE0D               	btfsc	___xxtofl@arg+2,7,c
  2291  001500  D003               	goto	i1u153_20
  2292  001502  0E02               	movlw	2
  2293  001504  600A               	cpfslt	___xxtofl@exp,c
  2294  001506  D7F5               	goto	i1l1900
  2295  001508                     i1u153_20:
  2296  001508  A00A               	btfss	___xxtofl@exp,0,c
  2297  00150A  9E0D               	bcf	___xxtofl@arg+2,7,c
  2298  00150C  90D8               	bcf	status,0,c
  2299  00150E  320A               	rrcf	___xxtofl@exp,f,c
  2300  001510  C00A  F005         	movff	___xxtofl@exp,??___xxtofl
  2301  001514  6A06               	clrf	(??___xxtofl+1)& (0+255),c
  2302  001516  6A07               	clrf	(??___xxtofl+2)& (0+255),c
  2303  001518  6A08               	clrf	(??___xxtofl+3)& (0+255),c
  2304  00151A  C005  F008         	movff	??___xxtofl,??___xxtofl+3
  2305  00151E  6A07               	clrf	??___xxtofl+2,c
  2306  001520  6A06               	clrf	??___xxtofl+1,c
  2307  001522  6A05               	clrf	??___xxtofl,c
  2308  001524  5005               	movf	??___xxtofl,w,c
  2309  001526  120B               	iorwf	___xxtofl@arg,f,c
  2310  001528  5006               	movf	??___xxtofl+1,w,c
  2311  00152A  120C               	iorwf	___xxtofl@arg+1,f,c
  2312  00152C  5007               	movf	??___xxtofl+2,w,c
  2313  00152E  120D               	iorwf	___xxtofl@arg+2,f,c
  2314  001530  5008               	movf	??___xxtofl+3,w,c
  2315  001532  120E               	iorwf	___xxtofl@arg+3,f,c
  2316  001534  5009               	movf	___xxtofl@sign,w,c
  2317  001536  A4D8               	btfss	status,2,c
  2318  001538  AE04               	btfss	___xxtofl@val+3,7,c
  2319  00153A  D001               	goto	i1l1918
  2320  00153C  8E0E               	bsf	___xxtofl@arg+3,7,c
  2321  00153E                     i1l1918:
  2322  00153E  C00B  F001         	movff	___xxtofl@arg,?___xxtofl
  2323  001542  C00C  F002         	movff	___xxtofl@arg+1,?___xxtofl+1
  2324  001546  C00D  F003         	movff	___xxtofl@arg+2,?___xxtofl+2
  2325  00154A  C00E  F004         	movff	___xxtofl@arg+3,?___xxtofl+3
  2326  00154E  0012               	return		;funcret
  2327  001550                     __end_of___xxtofl:
  2328                           	opt callstack 0
  2329                           
  2330 ;; *************** function ___fltol *****************
  2331 ;; Defined at:
  2332 ;;		line 43 in file "C:\Program Files (x86)\Microchip\xc8\v2.05\pic\sources\c99\common\fltol.c"
  2333 ;; Parameters:    Size  Location     Type
  2334 ;;  f1              4   39[COMRAM] unsigned char 
  2335 ;; Auto vars:     Size  Location     Type
  2336 ;;  exp1            1   48[COMRAM] unsigned char 
  2337 ;;  sign1           1   47[COMRAM] unsigned char 
  2338 ;; Return value:  Size  Location     Type
  2339 ;;                  4   39[COMRAM] long 
  2340 ;; Registers used:
  2341 ;;		wreg, status,2, status,0
  2342 ;; Tracked objects:
  2343 ;;		On entry : 0/0
  2344 ;;		On exit  : 0/0
  2345 ;;		Unchanged: 0/0
  2346 ;; Data sizes:     COMRAM   BANK0   BANK1   BANK2   BANK3   BANK4   BANK5   BANK6   BANK7   BANK8   BANK9  BANK10  BANK1
      +1  BANK12  BANK13  BANK14  BANK15
  2347 ;;      Params:         4       0       0       0       0       0       0       0       0       0       0       0       
      +0       0       0       0       0
  2348 ;;      Locals:         2       0       0       0       0       0       0       0       0       0       0       0       
      +0       0       0       0       0
  2349 ;;      Temps:          4       0       0       0       0       0       0       0       0       0       0       0       
      +0       0       0       0       0
  2350 ;;      Totals:        10       0       0       0       0       0       0       0       0       0       0       0       
      +0       0       0       0       0
  2351 ;;Total ram usage:       10 bytes
  2352 ;; Hardware stack levels used:    1
  2353 ;; This function calls:
  2354 ;;		Nothing
  2355 ;; This function is called by:
  2356 ;;		_printValue
  2357 ;; This function uses a non-reentrant model
  2358 ;;
  2359                           
  2360                           	psect	text19
  2361  001A74                     __ptext19:
  2362                           	opt callstack 0
  2363  001A74                     ___fltol:
  2364                           	opt callstack 26
  2365                           
  2366                           ;incstack = 0
  2367  001A74  342A               	rlcf	___fltol@f1+2,w,c
  2368  001A76  342B               	rlcf	___fltol@f1+3,w,c
  2369  001A78  6E31               	movwf	___fltol@exp1,c
  2370  001A7A  5031               	movf	___fltol@exp1,w,c
  2371  001A7C  A4D8               	btfss	status,2,c
  2372  001A7E  D009               	goto	i1l1838
  2373  001A80                     i1u140_20:
  2374  001A80  0E00               	movlw	0
  2375  001A82  6E28               	movwf	?___fltol,c
  2376  001A84  0E00               	movlw	0
  2377  001A86  6E29               	movwf	?___fltol+1,c
  2378  001A88  0E00               	movlw	0
  2379  001A8A  6E2A               	movwf	?___fltol+2,c
  2380  001A8C  0E00               	movlw	0
  2381  001A8E  6E2B               	movwf	?___fltol+3,c
  2382  001A90  0012               	return	
  2383  001A92                     i1l1838:
  2384  001A92  C028  F02C         	movff	___fltol@f1,??___fltol
  2385  001A96  C029  F02D         	movff	___fltol@f1+1,??___fltol+1
  2386  001A9A  C02A  F02E         	movff	___fltol@f1+2,??___fltol+2
  2387  001A9E  C02B  F02F         	movff	___fltol@f1+3,??___fltol+3
  2388  001AA2  0E20               	movlw	32
  2389  001AA4  D005               	goto	i1u141_20
  2390  001AA6                     i1u141_25:
  2391  001AA6  90D8               	bcf	status,0,c
  2392  001AA8  322F               	rrcf	??___fltol+3,f,c
  2393  001AAA  322E               	rrcf	??___fltol+2,f,c
  2394  001AAC  322D               	rrcf	??___fltol+1,f,c
  2395  001AAE  322C               	rrcf	??___fltol,f,c
  2396  001AB0                     i1u141_20:
  2397  001AB0  2EE8               	decfsz	wreg,f,c
  2398  001AB2  D7F9               	goto	i1u141_25
  2399  001AB4  502C               	movf	??___fltol,w,c
  2400  001AB6  6E30               	movwf	___fltol@sign1,c
  2401  001AB8  8E2A               	bsf	___fltol@f1+2,7,c
  2402  001ABA  0EFF               	movlw	255
  2403  001ABC  1628               	andwf	___fltol@f1,f,c
  2404  001ABE  0EFF               	movlw	255
  2405  001AC0  1629               	andwf	___fltol@f1+1,f,c
  2406  001AC2  0EFF               	movlw	255
  2407  001AC4  162A               	andwf	___fltol@f1+2,f,c
  2408  001AC6  0E00               	movlw	0
  2409  001AC8  162B               	andwf	___fltol@f1+3,f,c
  2410  001ACA  0E96               	movlw	150
  2411  001ACC  5E31               	subwf	___fltol@exp1,f,c
  2412  001ACE  AE31               	btfss	___fltol@exp1,7,c
  2413  001AD0  D00D               	goto	i1l1858
  2414  001AD2  5031               	movf	___fltol@exp1,w,c
  2415  001AD4  0A80               	xorlw	128
  2416  001AD6  0F97               	addlw	151
  2417  001AD8  A0D8               	btfss	status,0,c
  2418  001ADA  D7D2               	goto	i1u140_20
  2419  001ADC                     i1l1854:
  2420  001ADC  90D8               	bcf	status,0,c
  2421  001ADE  322B               	rrcf	___fltol@f1+3,f,c
  2422  001AE0  322A               	rrcf	___fltol@f1+2,f,c
  2423  001AE2  3229               	rrcf	___fltol@f1+1,f,c
  2424  001AE4  3228               	rrcf	___fltol@f1,f,c
  2425  001AE6  3E31               	incfsz	___fltol@exp1,f,c
  2426  001AE8  D7F9               	goto	i1l1854
  2427  001AEA  D00D               	goto	i1u145_20
  2428  001AEC                     i1l1858:
  2429  001AEC  0E1F               	movlw	31
  2430  001AEE  6431               	cpfsgt	___fltol@exp1,c
  2431  001AF0  D007               	goto	i1l1866
  2432  001AF2  D7C6               	goto	i1u140_20
  2433  001AF4                     i1l1864:
  2434  001AF4  90D8               	bcf	status,0,c
  2435  001AF6  3628               	rlcf	___fltol@f1,f,c
  2436  001AF8  3629               	rlcf	___fltol@f1+1,f,c
  2437  001AFA  362A               	rlcf	___fltol@f1+2,f,c
  2438  001AFC  362B               	rlcf	___fltol@f1+3,f,c
  2439  001AFE  0631               	decf	___fltol@exp1,f,c
  2440  001B00                     i1l1866:
  2441  001B00  5031               	movf	___fltol@exp1,w,c
  2442  001B02  A4D8               	btfss	status,2,c
  2443  001B04  D7F7               	goto	i1l1864
  2444  001B06                     i1u145_20:
  2445  001B06  5030               	movf	___fltol@sign1,w,c
  2446  001B08  B4D8               	btfsc	status,2,c
  2447  001B0A  D008               	goto	i1l1872
  2448  001B0C  1E2B               	comf	___fltol@f1+3,f,c
  2449  001B0E  1E2A               	comf	___fltol@f1+2,f,c
  2450  001B10  1E29               	comf	___fltol@f1+1,f,c
  2451  001B12  6C28               	negf	___fltol@f1,c
  2452  001B14  0E00               	movlw	0
  2453  001B16  2229               	addwfc	___fltol@f1+1,f,c
  2454  001B18  222A               	addwfc	___fltol@f1+2,f,c
  2455  001B1A  222B               	addwfc	___fltol@f1+3,f,c
  2456  001B1C                     i1l1872:
  2457  001B1C  C028  F028         	movff	___fltol@f1,?___fltol
  2458  001B20  C029  F029         	movff	___fltol@f1+1,?___fltol+1
  2459  001B24  C02A  F02A         	movff	___fltol@f1+2,?___fltol+2
  2460  001B28  C02B  F02B         	movff	___fltol@f1+3,?___fltol+3
  2461  001B2C  0012               	return		;funcret
  2462  001B2E                     __end_of___fltol:
  2463                           	opt callstack 0
  2464                           
  2465 ;; *************** function ___fldiv *****************
  2466 ;; Defined at:
  2467 ;;		line 11 in file "C:\Program Files (x86)\Microchip\xc8\v2.05\pic\sources\c99\common\sprcdiv.c"
  2468 ;; Parameters:    Size  Location     Type
  2469 ;;  b               4   14[COMRAM] long 
  2470 ;;  a               4   18[COMRAM] long 
  2471 ;; Auto vars:     Size  Location     Type
  2472 ;;  grs             4   33[COMRAM] unsigned long 
  2473 ;;  rem             4   26[COMRAM] unsigned long 
  2474 ;;  new_exp         2   31[COMRAM] short 
  2475 ;;  aexp            1   38[COMRAM] unsigned char 
  2476 ;;  bexp            1   37[COMRAM] unsigned char 
  2477 ;;  sign            1   30[COMRAM] unsigned char 
  2478 ;; Return value:  Size  Location     Type
  2479 ;;                  4   14[COMRAM] unsigned char 
  2480 ;; Registers used:
  2481 ;;		wreg, status,2, status,0
  2482 ;; Tracked objects:
  2483 ;;		On entry : 0/0
  2484 ;;		On exit  : 0/0
  2485 ;;		Unchanged: 0/0
  2486 ;; Data sizes:     COMRAM   BANK0   BANK1   BANK2   BANK3   BANK4   BANK5   BANK6   BANK7   BANK8   BANK9  BANK10  BANK1
      +1  BANK12  BANK13  BANK14  BANK15
  2487 ;;      Params:         8       0       0       0       0       0       0       0       0       0       0       0       
      +0       0       0       0       0
  2488 ;;      Locals:        13       0       0       0       0       0       0       0       0       0       0       0       
      +0       0       0       0       0
  2489 ;;      Temps:          4       0       0       0       0       0       0       0       0       0       0       0       
      +0       0       0       0       0
  2490 ;;      Totals:        25       0       0       0       0       0       0       0       0       0       0       0       
      +0       0       0       0       0
  2491 ;;Total ram usage:       25 bytes
  2492 ;; Hardware stack levels used:    1
  2493 ;; This function calls:
  2494 ;;		Nothing
  2495 ;; This function is called by:
  2496 ;;		_printValue
  2497 ;; This function uses a non-reentrant model
  2498 ;;
  2499                           
  2500                           	psect	text20
  2501  001018                     __ptext20:
  2502                           	opt callstack 0
  2503  001018                     ___fldiv:
  2504                           	opt callstack 26
  2505                           
  2506                           ;incstack = 0
  2507  001018  5012               	movf	___fldiv@b+3,w,c
  2508  00101A  0B80               	andlw	128
  2509  00101C  6E1F               	movwf	___fldiv@sign,c
  2510  00101E  5012               	movf	___fldiv@b+3,w,c
  2511  001020  2412               	addwf	___fldiv@b+3,w,c
  2512  001022  6E26               	movwf	___fldiv@bexp,c
  2513  001024  BE11               	btfsc	___fldiv@b+2,7,c
  2514  001026  8026               	bsf	___fldiv@bexp,0,c
  2515  001028  5026               	movf	___fldiv@bexp,w,c
  2516  00102A  B4D8               	btfsc	status,2,c
  2517  00102C  D00D               	goto	i1l1710
  2518  00102E  2826               	incf	___fldiv@bexp,w,c
  2519  001030  A4D8               	btfss	status,2,c
  2520  001032  D008               	goto	i1l1706
  2521  001034  0E00               	movlw	0
  2522  001036  6E0F               	movwf	___fldiv@b,c
  2523  001038  0E00               	movlw	0
  2524  00103A  6E10               	movwf	___fldiv@b+1,c
  2525  00103C  0E00               	movlw	0
  2526  00103E  6E11               	movwf	___fldiv@b+2,c
  2527  001040  0E00               	movlw	0
  2528  001042  6E12               	movwf	___fldiv@b+3,c
  2529  001044                     i1l1706:
  2530  001044  8E11               	bsf	___fldiv@b+2,7,c
  2531  001046  D006               	goto	L1
  2532  001048                     i1l1710:
  2533  001048  0E00               	movlw	0
  2534  00104A  6E0F               	movwf	___fldiv@b,c
  2535  00104C  0E00               	movlw	0
  2536  00104E  6E10               	movwf	___fldiv@b+1,c
  2537  001050  0E00               	movlw	0
  2538  001052  6E11               	movwf	___fldiv@b+2,c
  2539  001054                     L1:
  2540  001054  0E00               	movlw	0
  2541  001056  6E12               	movwf	___fldiv@b+3,c
  2542  001058  5016               	movf	___fldiv@a+3,w,c
  2543  00105A  0B80               	andlw	128
  2544  00105C  1A1F               	xorwf	___fldiv@sign,f,c
  2545  00105E  5016               	movf	___fldiv@a+3,w,c
  2546  001060  2416               	addwf	___fldiv@a+3,w,c
  2547  001062  6E27               	movwf	___fldiv@aexp,c
  2548  001064  BE15               	btfsc	___fldiv@a+2,7,c
  2549  001066  8027               	bsf	___fldiv@aexp,0,c
  2550  001068  5027               	movf	___fldiv@aexp,w,c
  2551  00106A  B4D8               	btfsc	status,2,c
  2552  00106C  D00D               	goto	i1l1730
  2553  00106E  2827               	incf	___fldiv@aexp,w,c
  2554  001070  A4D8               	btfss	status,2,c
  2555  001072  D008               	goto	i1l1726
  2556  001074  0E00               	movlw	0
  2557  001076  6E13               	movwf	___fldiv@a,c
  2558  001078  0E00               	movlw	0
  2559  00107A  6E14               	movwf	___fldiv@a+1,c
  2560  00107C  0E00               	movlw	0
  2561  00107E  6E15               	movwf	___fldiv@a+2,c
  2562  001080  0E00               	movlw	0
  2563  001082  6E16               	movwf	___fldiv@a+3,c
  2564  001084                     i1l1726:
  2565  001084  8E15               	bsf	___fldiv@a+2,7,c
  2566  001086  D006               	goto	L2
  2567  001088                     i1l1730:
  2568  001088  0E00               	movlw	0
  2569  00108A  6E13               	movwf	___fldiv@a,c
  2570  00108C  0E00               	movlw	0
  2571  00108E  6E14               	movwf	___fldiv@a+1,c
  2572  001090  0E00               	movlw	0
  2573  001092  6E15               	movwf	___fldiv@a+2,c
  2574  001094                     L2:
  2575  001094  0E00               	movlw	0
  2576  001096  6E16               	movwf	___fldiv@a+3,c
  2577  001098  5013               	movf	___fldiv@a,w,c
  2578  00109A  1014               	iorwf	___fldiv@a+1,w,c
  2579  00109C  1015               	iorwf	___fldiv@a+2,w,c
  2580  00109E  1016               	iorwf	___fldiv@a+3,w,c
  2581  0010A0  A4D8               	btfss	status,2,c
  2582  0010A2  D017               	goto	i1l1744
  2583  0010A4  0E00               	movlw	0
  2584  0010A6  6E0F               	movwf	___fldiv@b,c
  2585  0010A8  0E00               	movlw	0
  2586  0010AA  6E10               	movwf	___fldiv@b+1,c
  2587  0010AC  0E00               	movlw	0
  2588  0010AE  6E11               	movwf	___fldiv@b+2,c
  2589  0010B0  0E00               	movlw	0
  2590  0010B2  6E12               	movwf	___fldiv@b+3,c
  2591  0010B4  0E80               	movlw	128
  2592  0010B6  1211               	iorwf	___fldiv@b+2,f,c
  2593  0010B8  0E7F               	movlw	127
  2594  0010BA  1212               	iorwf	___fldiv@b+3,f,c
  2595  0010BC                     i1l1738:
  2596  0010BC  501F               	movf	___fldiv@sign,w,c
  2597  0010BE  1212               	iorwf	___fldiv@b+3,f,c
  2598  0010C0  C00F  F00F         	movff	___fldiv@b,?___fldiv
  2599  0010C4  C010  F010         	movff	___fldiv@b+1,?___fldiv+1
  2600  0010C8  C011  F011         	movff	___fldiv@b+2,?___fldiv+2
  2601  0010CC  C012  F012         	movff	___fldiv@b+3,?___fldiv+3
  2602  0010D0  0012               	return	
  2603  0010D2                     i1l1744:
  2604  0010D2  5026               	movf	___fldiv@bexp,w,c
  2605  0010D4  A4D8               	btfss	status,2,c
  2606  0010D6  D009               	goto	i1l1752
  2607  0010D8  0E00               	movlw	0
  2608  0010DA  6E0F               	movwf	?___fldiv,c
  2609  0010DC  0E00               	movlw	0
  2610  0010DE  6E10               	movwf	?___fldiv+1,c
  2611  0010E0  0E00               	movlw	0
  2612  0010E2  6E11               	movwf	?___fldiv+2,c
  2613  0010E4  0E00               	movlw	0
  2614  0010E6  6E12               	movwf	?___fldiv+3,c
  2615  0010E8  0012               	return	
  2616  0010EA                     i1l1752:
  2617  0010EA  5027               	movf	___fldiv@aexp,w,c
  2618  0010EC  C026  F017         	movff	___fldiv@bexp,??___fldiv
  2619  0010F0  6A18               	clrf	(??___fldiv+1)& (0+255),c
  2620  0010F2  5E17               	subwf	??___fldiv,f,c
  2621  0010F4  0E00               	movlw	0
  2622  0010F6  5A18               	subwfb	??___fldiv+1,f,c
  2623  0010F8  0E7F               	movlw	127
  2624  0010FA  2417               	addwf	??___fldiv,w,c
  2625  0010FC  6E20               	movwf	___fldiv@new_exp,c
  2626  0010FE  0E00               	movlw	0
  2627  001100  2018               	addwfc	??___fldiv+1,w,c
  2628  001102  6E21               	movwf	___fldiv@new_exp+1,c
  2629  001104  C00F  F01B         	movff	___fldiv@b,___fldiv@rem
  2630  001108  C010  F01C         	movff	___fldiv@b+1,___fldiv@rem+1
  2631  00110C  C011  F01D         	movff	___fldiv@b+2,___fldiv@rem+2
  2632  001110  C012  F01E         	movff	___fldiv@b+3,___fldiv@rem+3
  2633  001114  0E00               	movlw	0
  2634  001116  6E0F               	movwf	___fldiv@b,c
  2635  001118  0E00               	movlw	0
  2636  00111A  6E10               	movwf	___fldiv@b+1,c
  2637  00111C  0E00               	movlw	0
  2638  00111E  6E11               	movwf	___fldiv@b+2,c
  2639  001120  0E00               	movlw	0
  2640  001122  6E12               	movwf	___fldiv@b+3,c
  2641  001124  0E00               	movlw	0
  2642  001126  6E22               	movwf	___fldiv@grs,c
  2643  001128  0E00               	movlw	0
  2644  00112A  6E23               	movwf	___fldiv@grs+1,c
  2645  00112C  0E00               	movlw	0
  2646  00112E  6E24               	movwf	___fldiv@grs+2,c
  2647  001130  0E00               	movlw	0
  2648  001132  6E25               	movwf	___fldiv@grs+3,c
  2649  001134  0E00               	movlw	0
  2650  001136  6E27               	movwf	___fldiv@aexp,c
  2651  001138  D028               	goto	i1l755
  2652  00113A                     i1l1762:
  2653  00113A  5027               	movf	___fldiv@aexp,w,c
  2654  00113C  B4D8               	btfsc	status,2,c
  2655  00113E  D011               	goto	i1l1770
  2656  001140  90D8               	bcf	status,0,c
  2657  001142  361B               	rlcf	___fldiv@rem,f,c
  2658  001144  361C               	rlcf	___fldiv@rem+1,f,c
  2659  001146  361D               	rlcf	___fldiv@rem+2,f,c
  2660  001148  361E               	rlcf	___fldiv@rem+3,f,c
  2661  00114A  90D8               	bcf	status,0,c
  2662  00114C  360F               	rlcf	___fldiv@b,f,c
  2663  00114E  3610               	rlcf	___fldiv@b+1,f,c
  2664  001150  3611               	rlcf	___fldiv@b+2,f,c
  2665  001152  3612               	rlcf	___fldiv@b+3,f,c
  2666  001154  BE25               	btfsc	___fldiv@grs+3,7,c
  2667  001156  800F               	bsf	___fldiv@b,0,c
  2668  001158  90D8               	bcf	status,0,c
  2669  00115A  3622               	rlcf	___fldiv@grs,f,c
  2670  00115C  3623               	rlcf	___fldiv@grs+1,f,c
  2671  00115E  3624               	rlcf	___fldiv@grs+2,f,c
  2672  001160  3625               	rlcf	___fldiv@grs+3,f,c
  2673  001162                     i1l1770:
  2674  001162  5013               	movf	___fldiv@a,w,c
  2675  001164  5C1B               	subwf	___fldiv@rem,w,c
  2676  001166  5014               	movf	___fldiv@a+1,w,c
  2677  001168  581C               	subwfb	___fldiv@rem+1,w,c
  2678  00116A  5015               	movf	___fldiv@a+2,w,c
  2679  00116C  581D               	subwfb	___fldiv@rem+2,w,c
  2680  00116E  5016               	movf	___fldiv@a+3,w,c
  2681  001170  581E               	subwfb	___fldiv@rem+3,w,c
  2682  001172  A0D8               	btfss	status,0,c
  2683  001174  D009               	goto	i1l1776
  2684  001176  8C25               	bsf	___fldiv@grs+3,6,c
  2685  001178  5013               	movf	___fldiv@a,w,c
  2686  00117A  5E1B               	subwf	___fldiv@rem,f,c
  2687  00117C  5014               	movf	___fldiv@a+1,w,c
  2688  00117E  5A1C               	subwfb	___fldiv@rem+1,f,c
  2689  001180  5015               	movf	___fldiv@a+2,w,c
  2690  001182  5A1D               	subwfb	___fldiv@rem+2,f,c
  2691  001184  5016               	movf	___fldiv@a+3,w,c
  2692  001186  5A1E               	subwfb	___fldiv@rem+3,f,c
  2693  001188                     i1l1776:
  2694  001188  2A27               	incf	___fldiv@aexp,f,c
  2695  00118A                     i1l755:
  2696  00118A  0E19               	movlw	25
  2697  00118C  6427               	cpfsgt	___fldiv@aexp,c
  2698  00118E  D7D5               	goto	i1l1762
  2699  001190  501B               	movf	___fldiv@rem,w,c
  2700  001192  101C               	iorwf	___fldiv@rem+1,w,c
  2701  001194  101D               	iorwf	___fldiv@rem+2,w,c
  2702  001196  101E               	iorwf	___fldiv@rem+3,w,c
  2703  001198  B4D8               	btfsc	status,2,c
  2704  00119A  D011               	goto	i1l1788
  2705  00119C  8022               	bsf	___fldiv@grs,0,c
  2706  00119E  D00F               	goto	i1l1788
  2707  0011A0                     i1l1782:
  2708  0011A0  90D8               	bcf	status,0,c
  2709  0011A2  360F               	rlcf	___fldiv@b,f,c
  2710  0011A4  3610               	rlcf	___fldiv@b+1,f,c
  2711  0011A6  3611               	rlcf	___fldiv@b+2,f,c
  2712  0011A8  3612               	rlcf	___fldiv@b+3,f,c
  2713  0011AA  BE25               	btfsc	___fldiv@grs+3,7,c
  2714  0011AC  800F               	bsf	___fldiv@b,0,c
  2715  0011AE  90D8               	bcf	status,0,c
  2716  0011B0  3622               	rlcf	___fldiv@grs,f,c
  2717  0011B2  3623               	rlcf	___fldiv@grs+1,f,c
  2718  0011B4  3624               	rlcf	___fldiv@grs+2,f,c
  2719  0011B6  3625               	rlcf	___fldiv@grs+3,f,c
  2720  0011B8  0620               	decf	___fldiv@new_exp,f,c
  2721  0011BA  A0D8               	btfss	status,0,c
  2722  0011BC  0621               	decf	___fldiv@new_exp+1,f,c
  2723  0011BE                     i1l1788:
  2724  0011BE  AE11               	btfss	___fldiv@b+2,7,c
  2725  0011C0  D7EF               	goto	i1l1782
  2726  0011C2  0E00               	movlw	0
  2727  0011C4  6E27               	movwf	___fldiv@aexp,c
  2728  0011C6  AE25               	btfss	___fldiv@grs+3,7,c
  2729  0011C8  D017               	goto	i1l766
  2730  0011CA  0EFF               	movlw	255
  2731  0011CC  1422               	andwf	___fldiv@grs,w,c
  2732  0011CE  6E17               	movwf	??___fldiv& (0+255),c
  2733  0011D0  0EFF               	movlw	255
  2734  0011D2  1423               	andwf	___fldiv@grs+1,w,c
  2735  0011D4  6E18               	movwf	(??___fldiv+1)& (0+255),c
  2736  0011D6  0EFF               	movlw	255
  2737  0011D8  1424               	andwf	___fldiv@grs+2,w,c
  2738  0011DA  6E19               	movwf	(??___fldiv+2)& (0+255),c
  2739  0011DC  0E7F               	movlw	127
  2740  0011DE  1425               	andwf	___fldiv@grs+3,w,c
  2741  0011E0  6E1A               	movwf	(??___fldiv+3)& (0+255),c
  2742  0011E2  5017               	movf	??___fldiv,w,c
  2743  0011E4  1018               	iorwf	??___fldiv+1,w,c
  2744  0011E6  1019               	iorwf	??___fldiv+2,w,c
  2745  0011E8  101A               	iorwf	??___fldiv+3,w,c
  2746  0011EA  B4D8               	btfsc	status,2,c
  2747  0011EC  D003               	goto	i1l767
  2748  0011EE                     i1u133_20:
  2749  0011EE  0E01               	movlw	1
  2750  0011F0  6E27               	movwf	___fldiv@aexp,c
  2751  0011F2  D002               	goto	i1l766
  2752  0011F4                     i1l767:
  2753  0011F4  B00F               	btfsc	___fldiv@b,0,c
  2754  0011F6  D7FB               	goto	i1u133_20
  2755  0011F8                     i1l766:
  2756  0011F8  5027               	movf	___fldiv@aexp,w,c
  2757  0011FA  B4D8               	btfsc	status,2,c
  2758  0011FC  D01F               	goto	i1l1808
  2759  0011FE  0E01               	movlw	1
  2760  001200  260F               	addwf	___fldiv@b,f,c
  2761  001202  0E00               	movlw	0
  2762  001204  2210               	addwfc	___fldiv@b+1,f,c
  2763  001206  2211               	addwfc	___fldiv@b+2,f,c
  2764  001208  2212               	addwfc	___fldiv@b+3,f,c
  2765  00120A  A012               	btfss	___fldiv@b+3,0,c
  2766  00120C  D017               	goto	i1l1808
  2767  00120E  C00F  F017         	movff	___fldiv@b,??___fldiv
  2768  001212  C010  F018         	movff	___fldiv@b+1,??___fldiv+1
  2769  001216  C011  F019         	movff	___fldiv@b+2,??___fldiv+2
  2770  00121A  C012  F01A         	movff	___fldiv@b+3,??___fldiv+3
  2771  00121E  341A               	rlcf	??___fldiv+3,w,c
  2772  001220  321A               	rrcf	??___fldiv+3,f,c
  2773  001222  3219               	rrcf	??___fldiv+2,f,c
  2774  001224  3218               	rrcf	??___fldiv+1,f,c
  2775  001226  3217               	rrcf	??___fldiv,f,c
  2776  001228  C017  F00F         	movff	??___fldiv,___fldiv@b
  2777  00122C  C018  F010         	movff	??___fldiv+1,___fldiv@b+1
  2778  001230  C019  F011         	movff	??___fldiv+2,___fldiv@b+2
  2779  001234  C01A  F012         	movff	??___fldiv+3,___fldiv@b+3
  2780  001238  4A20               	infsnz	___fldiv@new_exp,f,c
  2781  00123A  2A21               	incf	___fldiv@new_exp+1,f,c
  2782  00123C                     i1l1808:
  2783  00123C  BE21               	btfsc	___fldiv@new_exp+1,7,c
  2784  00123E  D010               	goto	i1l1812
  2785  001240  5021               	movf	___fldiv@new_exp+1,w,c
  2786  001242  E103               	bnz	i1u137_20
  2787  001244  2820               	incf	___fldiv@new_exp,w,c
  2788  001246  A0D8               	btfss	status,0,c
  2789  001248  D00B               	goto	i1l1812
  2790  00124A                     i1u137_20:
  2791  00124A  0E00               	movlw	0
  2792  00124C  6E21               	movwf	___fldiv@new_exp+1,c
  2793  00124E  6820               	setf	___fldiv@new_exp,c
  2794  001250  0E00               	movlw	0
  2795  001252  6E0F               	movwf	___fldiv@b,c
  2796  001254  0E00               	movlw	0
  2797  001256  6E10               	movwf	___fldiv@b+1,c
  2798  001258  0E00               	movlw	0
  2799  00125A  6E11               	movwf	___fldiv@b+2,c
  2800  00125C  0E00               	movlw	0
  2801  00125E  6E12               	movwf	___fldiv@b+3,c
  2802  001260                     i1l1812:
  2803  001260  BE21               	btfsc	___fldiv@new_exp+1,7,c
  2804  001262  D005               	goto	i1u138_20
  2805  001264  5021               	movf	___fldiv@new_exp+1,w,c
  2806  001266  E111               	bnz	i1l1816
  2807  001268  0420               	decf	___fldiv@new_exp,w,c
  2808  00126A  B0D8               	btfsc	status,0,c
  2809  00126C  D00E               	goto	i1l1816
  2810  00126E                     i1u138_20:
  2811  00126E  0E00               	movlw	0
  2812  001270  6E21               	movwf	___fldiv@new_exp+1,c
  2813  001272  0E00               	movlw	0
  2814  001274  6E20               	movwf	___fldiv@new_exp,c
  2815  001276  0E00               	movlw	0
  2816  001278  6E0F               	movwf	___fldiv@b,c
  2817  00127A  0E00               	movlw	0
  2818  00127C  6E10               	movwf	___fldiv@b+1,c
  2819  00127E  0E00               	movlw	0
  2820  001280  6E11               	movwf	___fldiv@b+2,c
  2821  001282  0E00               	movlw	0
  2822  001284  6E12               	movwf	___fldiv@b+3,c
  2823  001286  0E00               	movlw	0
  2824  001288  6E1F               	movwf	___fldiv@sign,c
  2825  00128A                     i1l1816:
  2826  00128A  C020  F026         	movff	___fldiv@new_exp,___fldiv@bexp
  2827  00128E  A026               	btfss	___fldiv@bexp,0,c
  2828  001290  D002               	goto	i1l1822
  2829  001292  8E11               	bsf	___fldiv@b+2,7,c
  2830  001294  D001               	goto	i1l1824
  2831  001296                     i1l1822:
  2832  001296  9E11               	bcf	___fldiv@b+2,7,c
  2833  001298                     i1l1824:
  2834  001298  90D8               	bcf	status,0,c
  2835  00129A  3026               	rrcf	___fldiv@bexp,w,c
  2836  00129C  6E12               	movwf	___fldiv@b+3,c
  2837  00129E  D70E               	goto	i1l1738
  2838  0012A0                     __end_of___fldiv:
  2839                           	opt callstack 0
  2840                           
  2841 ;; *************** function ___almod *****************
  2842 ;; Defined at:
  2843 ;;		line 7 in file "C:\Program Files (x86)\Microchip\xc8\v2.05\pic\sources\c99\common\almod.c"
  2844 ;; Parameters:    Size  Location     Type
  2845 ;;  dividend        4    0[COMRAM] long 
  2846 ;;  divisor         4    4[COMRAM] long 
  2847 ;; Auto vars:     Size  Location     Type
  2848 ;;  sign            1    9[COMRAM] unsigned char 
  2849 ;;  counter         1    8[COMRAM] unsigned char 
  2850 ;; Return value:  Size  Location     Type
  2851 ;;                  4    0[COMRAM] long 
  2852 ;; Registers used:
  2853 ;;		wreg, status,2, status,0
  2854 ;; Tracked objects:
  2855 ;;		On entry : 0/0
  2856 ;;		On exit  : 0/0
  2857 ;;		Unchanged: 0/0
  2858 ;; Data sizes:     COMRAM   BANK0   BANK1   BANK2   BANK3   BANK4   BANK5   BANK6   BANK7   BANK8   BANK9  BANK10  BANK1
      +1  BANK12  BANK13  BANK14  BANK15
  2859 ;;      Params:         8       0       0       0       0       0       0       0       0       0       0       0       
      +0       0       0       0       0
  2860 ;;      Locals:         2       0       0       0       0       0       0       0       0       0       0       0       
      +0       0       0       0       0
  2861 ;;      Temps:          0       0       0       0       0       0       0       0       0       0       0       0       
      +0       0       0       0       0
  2862 ;;      Totals:        10       0       0       0       0       0       0       0       0       0       0       0       
      +0       0       0       0       0
  2863 ;;Total ram usage:       10 bytes
  2864 ;; Hardware stack levels used:    1
  2865 ;; This function calls:
  2866 ;;		Nothing
  2867 ;; This function is called by:
  2868 ;;		_printValue
  2869 ;; This function uses a non-reentrant model
  2870 ;;
  2871                           
  2872                           	psect	text21
  2873  001B2E                     __ptext21:
  2874                           	opt callstack 0
  2875  001B2E                     ___almod:
  2876                           	opt callstack 26
  2877                           
  2878                           ;incstack = 0
  2879  001B2E  0E00               	movlw	0
  2880  001B30  6E0A               	movwf	___almod@sign,c
  2881  001B32  AE04               	btfss	___almod@dividend+3,7,c
  2882  001B34  D00A               	goto	i1l1666
  2883  001B36  1E04               	comf	___almod@dividend+3,f,c
  2884  001B38  1E03               	comf	___almod@dividend+2,f,c
  2885  001B3A  1E02               	comf	___almod@dividend+1,f,c
  2886  001B3C  6C01               	negf	___almod@dividend,c
  2887  001B3E  0E00               	movlw	0
  2888  001B40  2202               	addwfc	___almod@dividend+1,f,c
  2889  001B42  2203               	addwfc	___almod@dividend+2,f,c
  2890  001B44  2204               	addwfc	___almod@dividend+3,f,c
  2891  001B46  0E01               	movlw	1
  2892  001B48  6E0A               	movwf	___almod@sign,c
  2893  001B4A                     i1l1666:
  2894  001B4A  AE08               	btfss	___almod@divisor+3,7,c
  2895  001B4C  D008               	goto	i1l1670
  2896  001B4E  1E08               	comf	___almod@divisor+3,f,c
  2897  001B50  1E07               	comf	___almod@divisor+2,f,c
  2898  001B52  1E06               	comf	___almod@divisor+1,f,c
  2899  001B54  6C05               	negf	___almod@divisor,c
  2900  001B56  0E00               	movlw	0
  2901  001B58  2206               	addwfc	___almod@divisor+1,f,c
  2902  001B5A  2207               	addwfc	___almod@divisor+2,f,c
  2903  001B5C  2208               	addwfc	___almod@divisor+3,f,c
  2904  001B5E                     i1l1670:
  2905  001B5E  5005               	movf	___almod@divisor,w,c
  2906  001B60  1006               	iorwf	___almod@divisor+1,w,c
  2907  001B62  1007               	iorwf	___almod@divisor+2,w,c
  2908  001B64  1008               	iorwf	___almod@divisor+3,w,c
  2909  001B66  B4D8               	btfsc	status,2,c
  2910  001B68  D024               	goto	i1l1686
  2911  001B6A  0E01               	movlw	1
  2912  001B6C  6E09               	movwf	___almod@counter,c
  2913  001B6E  D006               	goto	i1l1676
  2914  001B70                     i1l1674:
  2915  001B70  90D8               	bcf	status,0,c
  2916  001B72  3605               	rlcf	___almod@divisor,f,c
  2917  001B74  3606               	rlcf	___almod@divisor+1,f,c
  2918  001B76  3607               	rlcf	___almod@divisor+2,f,c
  2919  001B78  3608               	rlcf	___almod@divisor+3,f,c
  2920  001B7A  2A09               	incf	___almod@counter,f,c
  2921  001B7C                     i1l1676:
  2922  001B7C  AE08               	btfss	___almod@divisor+3,7,c
  2923  001B7E  D7F8               	goto	i1l1674
  2924  001B80                     i1u114_20:
  2925  001B80  5005               	movf	___almod@divisor,w,c
  2926  001B82  5C01               	subwf	___almod@dividend,w,c
  2927  001B84  5006               	movf	___almod@divisor+1,w,c
  2928  001B86  5802               	subwfb	___almod@dividend+1,w,c
  2929  001B88  5007               	movf	___almod@divisor+2,w,c
  2930  001B8A  5803               	subwfb	___almod@dividend+2,w,c
  2931  001B8C  5008               	movf	___almod@divisor+3,w,c
  2932  001B8E  5804               	subwfb	___almod@dividend+3,w,c
  2933  001B90  A0D8               	btfss	status,0,c
  2934  001B92  D008               	goto	i1l1682
  2935  001B94  5005               	movf	___almod@divisor,w,c
  2936  001B96  5E01               	subwf	___almod@dividend,f,c
  2937  001B98  5006               	movf	___almod@divisor+1,w,c
  2938  001B9A  5A02               	subwfb	___almod@dividend+1,f,c
  2939  001B9C  5007               	movf	___almod@divisor+2,w,c
  2940  001B9E  5A03               	subwfb	___almod@dividend+2,f,c
  2941  001BA0  5008               	movf	___almod@divisor+3,w,c
  2942  001BA2  5A04               	subwfb	___almod@dividend+3,f,c
  2943  001BA4                     i1l1682:
  2944  001BA4  90D8               	bcf	status,0,c
  2945  001BA6  3208               	rrcf	___almod@divisor+3,f,c
  2946  001BA8  3207               	rrcf	___almod@divisor+2,f,c
  2947  001BAA  3206               	rrcf	___almod@divisor+1,f,c
  2948  001BAC  3205               	rrcf	___almod@divisor,f,c
  2949  001BAE  2E09               	decfsz	___almod@counter,f,c
  2950  001BB0  D7E7               	goto	i1u114_20
  2951  001BB2                     i1l1686:
  2952  001BB2  500A               	movf	___almod@sign,w,c
  2953  001BB4  B4D8               	btfsc	status,2,c
  2954  001BB6  D008               	goto	i1l1690
  2955  001BB8  1E04               	comf	___almod@dividend+3,f,c
  2956  001BBA  1E03               	comf	___almod@dividend+2,f,c
  2957  001BBC  1E02               	comf	___almod@dividend+1,f,c
  2958  001BBE  6C01               	negf	___almod@dividend,c
  2959  001BC0  0E00               	movlw	0
  2960  001BC2  2202               	addwfc	___almod@dividend+1,f,c
  2961  001BC4  2203               	addwfc	___almod@dividend+2,f,c
  2962  001BC6  2204               	addwfc	___almod@dividend+3,f,c
  2963  001BC8                     i1l1690:
  2964  001BC8  C001  F001         	movff	___almod@dividend,?___almod
  2965  001BCC  C002  F002         	movff	___almod@dividend+1,?___almod+1
  2966  001BD0  C003  F003         	movff	___almod@dividend+2,?___almod+2
  2967  001BD4  C004  F004         	movff	___almod@dividend+3,?___almod+3
  2968  001BD8  0012               	return		;funcret
  2969  001BDA                     __end_of___almod:
  2970                           	opt callstack 0
  2971                           
  2972 ;; *************** function ___aldiv *****************
  2973 ;; Defined at:
  2974 ;;		line 7 in file "C:\Program Files (x86)\Microchip\xc8\v2.05\pic\sources\c99\common\aldiv.c"
  2975 ;; Parameters:    Size  Location     Type
  2976 ;;  dividend        4    0[COMRAM] long 
  2977 ;;  divisor         4    4[COMRAM] long 
  2978 ;; Auto vars:     Size  Location     Type
  2979 ;;  quotient        4   10[COMRAM] long 
  2980 ;;  sign            1    9[COMRAM] unsigned char 
  2981 ;;  counter         1    8[COMRAM] unsigned char 
  2982 ;; Return value:  Size  Location     Type
  2983 ;;                  4    0[COMRAM] long 
  2984 ;; Registers used:
  2985 ;;		wreg, status,2, status,0
  2986 ;; Tracked objects:
  2987 ;;		On entry : 0/0
  2988 ;;		On exit  : 0/0
  2989 ;;		Unchanged: 0/0
  2990 ;; Data sizes:     COMRAM   BANK0   BANK1   BANK2   BANK3   BANK4   BANK5   BANK6   BANK7   BANK8   BANK9  BANK10  BANK1
      +1  BANK12  BANK13  BANK14  BANK15
  2991 ;;      Params:         8       0       0       0       0       0       0       0       0       0       0       0       
      +0       0       0       0       0
  2992 ;;      Locals:         6       0       0       0       0       0       0       0       0       0       0       0       
      +0       0       0       0       0
  2993 ;;      Temps:          0       0       0       0       0       0       0       0       0       0       0       0       
      +0       0       0       0       0
  2994 ;;      Totals:        14       0       0       0       0       0       0       0       0       0       0       0       
      +0       0       0       0       0
  2995 ;;Total ram usage:       14 bytes
  2996 ;; Hardware stack levels used:    1
  2997 ;; This function calls:
  2998 ;;		Nothing
  2999 ;; This function is called by:
  3000 ;;		_printValue
  3001 ;; This function uses a non-reentrant model
  3002 ;;
  3003                           
  3004                           	psect	text22
  3005  0019A8                     __ptext22:
  3006                           	opt callstack 0
  3007  0019A8                     ___aldiv:
  3008                           	opt callstack 26
  3009                           
  3010                           ;incstack = 0
  3011  0019A8  0E00               	movlw	0
  3012  0019AA  6E0A               	movwf	___aldiv@sign,c
  3013  0019AC  AE08               	btfss	___aldiv@divisor+3,7,c
  3014  0019AE  D00A               	goto	i1l1622
  3015  0019B0  1E08               	comf	___aldiv@divisor+3,f,c
  3016  0019B2  1E07               	comf	___aldiv@divisor+2,f,c
  3017  0019B4  1E06               	comf	___aldiv@divisor+1,f,c
  3018  0019B6  6C05               	negf	___aldiv@divisor,c
  3019  0019B8  0E00               	movlw	0
  3020  0019BA  2206               	addwfc	___aldiv@divisor+1,f,c
  3021  0019BC  2207               	addwfc	___aldiv@divisor+2,f,c
  3022  0019BE  2208               	addwfc	___aldiv@divisor+3,f,c
  3023  0019C0  0E01               	movlw	1
  3024  0019C2  6E0A               	movwf	___aldiv@sign,c
  3025  0019C4                     i1l1622:
  3026  0019C4  AE04               	btfss	___aldiv@dividend+3,7,c
  3027  0019C6  D00A               	goto	i1l1628
  3028  0019C8  1E04               	comf	___aldiv@dividend+3,f,c
  3029  0019CA  1E03               	comf	___aldiv@dividend+2,f,c
  3030  0019CC  1E02               	comf	___aldiv@dividend+1,f,c
  3031  0019CE  6C01               	negf	___aldiv@dividend,c
  3032  0019D0  0E00               	movlw	0
  3033  0019D2  2202               	addwfc	___aldiv@dividend+1,f,c
  3034  0019D4  2203               	addwfc	___aldiv@dividend+2,f,c
  3035  0019D6  2204               	addwfc	___aldiv@dividend+3,f,c
  3036  0019D8  0E01               	movlw	1
  3037  0019DA  1A0A               	xorwf	___aldiv@sign,f,c
  3038  0019DC                     i1l1628:
  3039  0019DC  0E00               	movlw	0
  3040  0019DE  6E0B               	movwf	___aldiv@quotient,c
  3041  0019E0  0E00               	movlw	0
  3042  0019E2  6E0C               	movwf	___aldiv@quotient+1,c
  3043  0019E4  0E00               	movlw	0
  3044  0019E6  6E0D               	movwf	___aldiv@quotient+2,c
  3045  0019E8  0E00               	movlw	0
  3046  0019EA  6E0E               	movwf	___aldiv@quotient+3,c
  3047  0019EC  5005               	movf	___aldiv@divisor,w,c
  3048  0019EE  1006               	iorwf	___aldiv@divisor+1,w,c
  3049  0019F0  1007               	iorwf	___aldiv@divisor+2,w,c
  3050  0019F2  1008               	iorwf	___aldiv@divisor+3,w,c
  3051  0019F4  B4D8               	btfsc	status,2,c
  3052  0019F6  D02A               	goto	i1l1650
  3053  0019F8  0E01               	movlw	1
  3054  0019FA  6E09               	movwf	___aldiv@counter,c
  3055  0019FC  D006               	goto	i1l1636
  3056  0019FE                     i1l1634:
  3057  0019FE  90D8               	bcf	status,0,c
  3058  001A00  3605               	rlcf	___aldiv@divisor,f,c
  3059  001A02  3606               	rlcf	___aldiv@divisor+1,f,c
  3060  001A04  3607               	rlcf	___aldiv@divisor+2,f,c
  3061  001A06  3608               	rlcf	___aldiv@divisor+3,f,c
  3062  001A08  2A09               	incf	___aldiv@counter,f,c
  3063  001A0A                     i1l1636:
  3064  001A0A  AE08               	btfss	___aldiv@divisor+3,7,c
  3065  001A0C  D7F8               	goto	i1l1634
  3066  001A0E                     i1u108_20:
  3067  001A0E  90D8               	bcf	status,0,c
  3068  001A10  360B               	rlcf	___aldiv@quotient,f,c
  3069  001A12  360C               	rlcf	___aldiv@quotient+1,f,c
  3070  001A14  360D               	rlcf	___aldiv@quotient+2,f,c
  3071  001A16  360E               	rlcf	___aldiv@quotient+3,f,c
  3072  001A18  5005               	movf	___aldiv@divisor,w,c
  3073  001A1A  5C01               	subwf	___aldiv@dividend,w,c
  3074  001A1C  5006               	movf	___aldiv@divisor+1,w,c
  3075  001A1E  5802               	subwfb	___aldiv@dividend+1,w,c
  3076  001A20  5007               	movf	___aldiv@divisor+2,w,c
  3077  001A22  5803               	subwfb	___aldiv@dividend+2,w,c
  3078  001A24  5008               	movf	___aldiv@divisor+3,w,c
  3079  001A26  5804               	subwfb	___aldiv@dividend+3,w,c
  3080  001A28  A0D8               	btfss	status,0,c
  3081  001A2A  D009               	goto	i1l1646
  3082  001A2C  5005               	movf	___aldiv@divisor,w,c
  3083  001A2E  5E01               	subwf	___aldiv@dividend,f,c
  3084  001A30  5006               	movf	___aldiv@divisor+1,w,c
  3085  001A32  5A02               	subwfb	___aldiv@dividend+1,f,c
  3086  001A34  5007               	movf	___aldiv@divisor+2,w,c
  3087  001A36  5A03               	subwfb	___aldiv@dividend+2,f,c
  3088  001A38  5008               	movf	___aldiv@divisor+3,w,c
  3089  001A3A  5A04               	subwfb	___aldiv@dividend+3,f,c
  3090  001A3C  800B               	bsf	___aldiv@quotient,0,c
  3091  001A3E                     i1l1646:
  3092  001A3E  90D8               	bcf	status,0,c
  3093  001A40  3208               	rrcf	___aldiv@divisor+3,f,c
  3094  001A42  3207               	rrcf	___aldiv@divisor+2,f,c
  3095  001A44  3206               	rrcf	___aldiv@divisor+1,f,c
  3096  001A46  3205               	rrcf	___aldiv@divisor,f,c
  3097  001A48  2E09               	decfsz	___aldiv@counter,f,c
  3098  001A4A  D7E1               	goto	i1u108_20
  3099  001A4C                     i1l1650:
  3100  001A4C  500A               	movf	___aldiv@sign,w,c
  3101  001A4E  B4D8               	btfsc	status,2,c
  3102  001A50  D008               	goto	i1l1654
  3103  001A52  1E0E               	comf	___aldiv@quotient+3,f,c
  3104  001A54  1E0D               	comf	___aldiv@quotient+2,f,c
  3105  001A56  1E0C               	comf	___aldiv@quotient+1,f,c
  3106  001A58  6C0B               	negf	___aldiv@quotient,c
  3107  001A5A  0E00               	movlw	0
  3108  001A5C  220C               	addwfc	___aldiv@quotient+1,f,c
  3109  001A5E  220D               	addwfc	___aldiv@quotient+2,f,c
  3110  001A60  220E               	addwfc	___aldiv@quotient+3,f,c
  3111  001A62                     i1l1654:
  3112  001A62  C00B  F001         	movff	___aldiv@quotient,?___aldiv
  3113  001A66  C00C  F002         	movff	___aldiv@quotient+1,?___aldiv+1
  3114  001A6A  C00D  F003         	movff	___aldiv@quotient+2,?___aldiv+2
  3115  001A6E  C00E  F004         	movff	___aldiv@quotient+3,?___aldiv+3
  3116  001A72  0012               	return		;funcret
  3117  001A74                     __end_of___aldiv:
  3118                           	opt callstack 0
  3119                           
  3120 ;; *************** function _LCD_String_xy *****************
  3121 ;; Defined at:
  3122 ;;		line 81 in file "F:/SV3_HK2/DoAn2/MPLABXProjects/I2CHandCodeAndCompute.X/lcd.c"
  3123 ;; Parameters:    Size  Location     Type
  3124 ;;  row             1    wreg     unsigned char 
  3125 ;;  pos             1    9[COMRAM] unsigned char 
  3126 ;;  str             2   10[COMRAM] PTR unsigned char 
  3127 ;;		 -> printValue@str(6), 
  3128 ;; Auto vars:     Size  Location     Type
  3129 ;;  row             1   12[COMRAM] unsigned char 
  3130 ;; Return value:  Size  Location     Type
  3131 ;;                  1    wreg      void 
  3132 ;; Registers used:
  3133 ;;		wreg, fsr0l, fsr0h, status,2, status,0, tblptrl, tblptrh, tblptru, cstack
  3134 ;; Tracked objects:
  3135 ;;		On entry : 0/0
  3136 ;;		On exit  : 0/0
  3137 ;;		Unchanged: 0/0
  3138 ;; Data sizes:     COMRAM   BANK0   BANK1   BANK2   BANK3   BANK4   BANK5   BANK6   BANK7   BANK8   BANK9  BANK10  BANK1
      +1  BANK12  BANK13  BANK14  BANK15
  3139 ;;      Params:         3       0       0       0       0       0       0       0       0       0       0       0       
      +0       0       0       0       0
  3140 ;;      Locals:         1       0       0       0       0       0       0       0       0       0       0       0       
      +0       0       0       0       0
  3141 ;;      Temps:          0       0       0       0       0       0       0       0       0       0       0       0       
      +0       0       0       0       0
  3142 ;;      Totals:         4       0       0       0       0       0       0       0       0       0       0       0       
      +0       0       0       0       0
  3143 ;;Total ram usage:        4 bytes
  3144 ;; Hardware stack levels used:    1
  3145 ;; Hardware stack levels required when called:    2
  3146 ;; This function calls:
  3147 ;;		i1_LCD_Command
  3148 ;;		i1_LCD_String
  3149 ;; This function is called by:
  3150 ;;		_printValue
  3151 ;; This function uses a non-reentrant model
  3152 ;;
  3153                           
  3154                           	psect	text23
  3155  001D9A                     __ptext23:
  3156                           	opt callstack 0
  3157  001D9A                     _LCD_String_xy:
  3158                           	opt callstack 24
  3159                           
  3160                           ;incstack = 0
  3161                           ;LCD_String_xy@row stored from wreg
  3162  001D9A  6E0D               	movwf	LCD_String_xy@row,c
  3163                           
  3164                           ;F:/SV3_HK2/DoAn2/MPLABXProjects/I2CHandCodeAndCompute.X/lcd.c: 82:     if (row == 0){
  3165  001D9C  500D               	movf	LCD_String_xy@row,w,c
  3166  001D9E  A4D8               	btfss	status,2,c
  3167  001DA0  D006               	goto	i1l1544
  3168                           
  3169                           ;F:/SV3_HK2/DoAn2/MPLABXProjects/I2CHandCodeAndCompute.X/lcd.c: 83:         LCD_Command(
      +                          (pos & 0x0F)|0x80);
  3170  001DA2  500A               	movf	LCD_String_xy@pos,w,c
  3171  001DA4  0B0F               	andlw	15
  3172  001DA6  0980               	iorlw	128
  3173  001DA8  EC4D  F00C         	call	i1_LCD_Command
  3174                           
  3175                           ;F:/SV3_HK2/DoAn2/MPLABXProjects/I2CHandCodeAndCompute.X/lcd.c: 84:     }else if (row ==
      +                           1){
  3176  001DAC  D008               	goto	i1l1548
  3177  001DAE                     i1l1544:
  3178  001DAE  040D               	decf	LCD_String_xy@row,w,c
  3179  001DB0  A4D8               	btfss	status,2,c
  3180  001DB2  D005               	goto	i1l1548
  3181                           
  3182                           ;F:/SV3_HK2/DoAn2/MPLABXProjects/I2CHandCodeAndCompute.X/lcd.c: 85:         LCD_Command(
      +                          (pos & 0x0F)|0xC0);
  3183  001DB4  500A               	movf	LCD_String_xy@pos,w,c
  3184  001DB6  0B0F               	andlw	15
  3185  001DB8  09C0               	iorlw	192
  3186  001DBA  EC4D  F00C         	call	i1_LCD_Command
  3187  001DBE                     i1l1548:
  3188                           
  3189                           ;F:/SV3_HK2/DoAn2/MPLABXProjects/I2CHandCodeAndCompute.X/lcd.c: 87:     LCD_String(str);
  3190  001DBE  C00B  F004         	movff	LCD_String_xy@str,i1LCD_String@str
  3191  001DC2  C00C  F005         	movff	LCD_String_xy@str+1,i1LCD_String@str+1
  3192  001DC6  EC2B  F00E         	call	i1_LCD_String	;wreg free
  3193  001DCA  0012               	return		;funcret
  3194  001DCC                     __end_of_LCD_String_xy:
  3195                           	opt callstack 0
  3196                           
  3197 ;; *************** function i1_LCD_String *****************
  3198 ;; Defined at:
  3199 ;;		line 72 in file "F:/SV3_HK2/DoAn2/MPLABXProjects/I2CHandCodeAndCompute.X/lcd.c"
  3200 ;; Parameters:    Size  Location     Type
  3201 ;;  str             2    3[COMRAM] PTR unsigned char 
  3202 ;;		 -> STR_2(5), printValue@str(6), STR_1(16), 
  3203 ;; Auto vars:     Size  Location     Type
  3204 ;;  LCD_String      2    7[COMRAM] int 
  3205 ;; Return value:  Size  Location     Type
  3206 ;;                  1    wreg      void 
  3207 ;; Registers used:
  3208 ;;		wreg, fsr0l, fsr0h, status,2, status,0, tblptrl, tblptrh, tblptru, cstack
  3209 ;; Tracked objects:
  3210 ;;		On entry : 0/0
  3211 ;;		On exit  : 0/0
  3212 ;;		Unchanged: 0/0
  3213 ;; Data sizes:     COMRAM   BANK0   BANK1   BANK2   BANK3   BANK4   BANK5   BANK6   BANK7   BANK8   BANK9  BANK10  BANK1
      +1  BANK12  BANK13  BANK14  BANK15
  3214 ;;      Params:         2       0       0       0       0       0       0       0       0       0       0       0       
      +0       0       0       0       0
  3215 ;;      Locals:         2       0       0       0       0       0       0       0       0       0       0       0       
      +0       0       0       0       0
  3216 ;;      Temps:          2       0       0       0       0       0       0       0       0       0       0       0       
      +0       0       0       0       0
  3217 ;;      Totals:         6       0       0       0       0       0       0       0       0       0       0       0       
      +0       0       0       0       0
  3218 ;;Total ram usage:        6 bytes
  3219 ;; Hardware stack levels used:    1
  3220 ;; Hardware stack levels required when called:    1
  3221 ;; This function calls:
  3222 ;;		i1_LCD_Char
  3223 ;; This function is called by:
  3224 ;;		_printValue
  3225 ;;		_LCD_String_xy
  3226 ;; This function uses a non-reentrant model
  3227 ;;
  3228                           
  3229                           	psect	text24
  3230  001C56                     __ptext24:
  3231                           	opt callstack 0
  3232  001C56                     i1_LCD_String:
  3233                           	opt callstack 25
  3234                           
  3235                           ;F:/SV3_HK2/DoAn2/MPLABXProjects/I2CHandCodeAndCompute.X/lcd.c: 73:     int i;;F:/SV3_HK
      +                          2/DoAn2/MPLABXProjects/I2CHandCodeAndCompute.X/lcd.c: 74:     for (i = 0; str[i] != 0; i
      +                          ++){
  3236                           
  3237                           ;incstack = 0
  3238  001C56  0E00               	movlw	0
  3239  001C58  6E09               	movwf	i1LCD_String@i+1,c
  3240  001C5A  0E00               	movlw	0
  3241  001C5C  6E08               	movwf	i1LCD_String@i,c
  3242  001C5E  D01B               	goto	i1l1538
  3243  001C60                     i1l1534:
  3244                           
  3245                           ;F:/SV3_HK2/DoAn2/MPLABXProjects/I2CHandCodeAndCompute.X/lcd.c: 75:         LCD_Char(str
      +                          [i]);
  3246  001C60  5008               	movf	i1LCD_String@i,w,c
  3247  001C62  2404               	addwf	i1LCD_String@str,w,c
  3248  001C64  6E06               	movwf	??i1_LCD_String& (0+255),c
  3249  001C66  5009               	movf	i1LCD_String@i+1,w,c
  3250  001C68  2005               	addwfc	i1LCD_String@str+1,w,c
  3251  001C6A  6E07               	movwf	(??i1_LCD_String+1)& (0+255),c
  3252  001C6C  C006  FFF6         	movff	??i1_LCD_String,tblptrl
  3253  001C70  C007  FFF7         	movff	??i1_LCD_String+1,tblptrh
  3254  001C74  0E00               	movlw	low (__smallconst shr (0+16))
  3255  001C76  6EF8               	movwf	tblptru,c
  3256  001C78  0E0F               	movlw	(high __ramtop+-1)
  3257  001C7A  64F7               	cpfsgt	tblptrh,c
  3258  001C7C  D003               	bra	i1u92_27
  3259  001C7E  0008               	tblrd		*
  3260  001C80  50F5               	movf	tablat,w,c
  3261  001C82  D005               	bra	i1u92_20
  3262  001C84                     i1u92_27:
  3263  001C84  CFF6 FFE9          	movff	tblptrl,fsr0l
  3264  001C88  CFF7 FFEA          	movff	tblptrh,fsr0h
  3265  001C8C  50EF               	movf	indf0,w,c
  3266  001C8E                     i1u92_20:
  3267  001C8E  ECC6  F00B         	call	i1_LCD_Char
  3268                           
  3269                           ;F:/SV3_HK2/DoAn2/MPLABXProjects/I2CHandCodeAndCompute.X/lcd.c: 76:     }
  3270  001C92  4A08               	infsnz	i1LCD_String@i,f,c
  3271  001C94  2A09               	incf	i1LCD_String@i+1,f,c
  3272  001C96                     i1l1538:
  3273  001C96  5008               	movf	i1LCD_String@i,w,c
  3274  001C98  2404               	addwf	i1LCD_String@str,w,c
  3275  001C9A  6E06               	movwf	??i1_LCD_String& (0+255),c
  3276  001C9C  5009               	movf	i1LCD_String@i+1,w,c
  3277  001C9E  2005               	addwfc	i1LCD_String@str+1,w,c
  3278  001CA0  6E07               	movwf	(??i1_LCD_String+1)& (0+255),c
  3279  001CA2  C006  FFF6         	movff	??i1_LCD_String,tblptrl
  3280  001CA6  C007  FFF7         	movff	??i1_LCD_String+1,tblptrh
  3281  001CAA  0E00               	movlw	low (__smallconst shr (0+16))
  3282  001CAC  6EF8               	movwf	tblptru,c
  3283  001CAE  0E0F               	movlw	(high __ramtop+-1)
  3284  001CB0  64F7               	cpfsgt	tblptrh,c
  3285  001CB2  D003               	bra	i1u93_27
  3286  001CB4  0008               	tblrd		*
  3287  001CB6  50F5               	movf	tablat,w,c
  3288  001CB8  D005               	bra	i1u93_20
  3289  001CBA                     i1u93_27:
  3290  001CBA  CFF6 FFE9          	movff	tblptrl,fsr0l
  3291  001CBE  CFF7 FFEA          	movff	tblptrh,fsr0h
  3292  001CC2  50EF               	movf	indf0,w,c
  3293  001CC4                     i1u93_20:
  3294  001CC4  0900               	iorlw	0
  3295  001CC6  B4D8               	btfsc	status,2,c
  3296  001CC8  0012               	return	
  3297  001CCA  D7CA               	goto	i1l1534
  3298  001CCC                     __end_ofi1_LCD_String:
  3299                           	opt callstack 0
  3300                           
  3301 ;; *************** function i1_LCD_Char *****************
  3302 ;; Defined at:
  3303 ;;		line 49 in file "F:/SV3_HK2/DoAn2/MPLABXProjects/I2CHandCodeAndCompute.X/lcd.c"
  3304 ;; Parameters:    Size  Location     Type
  3305 ;;  char_data       1    wreg     unsigned char 
  3306 ;; Auto vars:     Size  Location     Type
  3307 ;;  char_data       1    2[COMRAM] unsigned char 
  3308 ;; Return value:  Size  Location     Type
  3309 ;;                  1    wreg      void 
  3310 ;; Registers used:
  3311 ;;		wreg, status,2, status,0
  3312 ;; Tracked objects:
  3313 ;;		On entry : 0/0
  3314 ;;		On exit  : 0/0
  3315 ;;		Unchanged: 0/0
  3316 ;; Data sizes:     COMRAM   BANK0   BANK1   BANK2   BANK3   BANK4   BANK5   BANK6   BANK7   BANK8   BANK9  BANK10  BANK1
      +1  BANK12  BANK13  BANK14  BANK15
  3317 ;;      Params:         0       0       0       0       0       0       0       0       0       0       0       0       
      +0       0       0       0       0
  3318 ;;      Locals:         1       0       0       0       0       0       0       0       0       0       0       0       
      +0       0       0       0       0
  3319 ;;      Temps:          2       0       0       0       0       0       0       0       0       0       0       0       
      +0       0       0       0       0
  3320 ;;      Totals:         3       0       0       0       0       0       0       0       0       0       0       0       
      +0       0       0       0       0
  3321 ;;Total ram usage:        3 bytes
  3322 ;; Hardware stack levels used:    1
  3323 ;; This function calls:
  3324 ;;		Nothing
  3325 ;; This function is called by:
  3326 ;;		i1_LCD_String
  3327 ;; This function uses a non-reentrant model
  3328 ;;
  3329                           
  3330                           	psect	text25
  3331  00178C                     __ptext25:
  3332                           	opt callstack 0
  3333  00178C                     i1_LCD_Char:
  3334                           	opt callstack 25
  3335                           
  3336                           ;incstack = 0
  3337                           ;i1LCD_Char@char_data stored from wreg
  3338  00178C  6E03               	movwf	i1LCD_Char@char_data,c
  3339                           
  3340                           ;F:/SV3_HK2/DoAn2/MPLABXProjects/I2CHandCodeAndCompute.X/lcd.c: 50:     PORTBbits.RB7 = 
      +                          char_data >> 7;
  3341  00178E  6A01               	clrf	??i1_LCD_Char& (0+255),c
  3342  001790  AE03               	btfss	i1LCD_Char@char_data,7,c
  3343  001792  D001               	bra	i1u84_25
  3344  001794  2A01               	incf	??i1_LCD_Char& (0+255),f,c
  3345  001796                     i1u84_25:
  3346  001796  3201               	rrcf	??i1_LCD_Char,f,c
  3347  001798  3201               	rrcf	??i1_LCD_Char,f,c
  3348  00179A  5081               	movf	3969,w,c	;volatile
  3349  00179C  1801               	xorwf	??i1_LCD_Char,w,c
  3350  00179E  0B7F               	andlw	-129
  3351  0017A0  1801               	xorwf	??i1_LCD_Char,w,c
  3352  0017A2  6E81               	movwf	3969,c	;volatile
  3353                           
  3354                           ;F:/SV3_HK2/DoAn2/MPLABXProjects/I2CHandCodeAndCompute.X/lcd.c: 51:     PORTBbits.RB6 = 
      +                          char_data >> 6;
  3355  0017A4  C003  F001         	movff	i1LCD_Char@char_data,??i1_LCD_Char
  3356  0017A8  0E06               	movlw	6
  3357  0017AA  6E02               	movwf	(??i1_LCD_Char+1)& (0+255),c
  3358  0017AC                     i1u85_25:
  3359  0017AC  90D8               	bcf	status,0,c
  3360  0017AE  3201               	rrcf	??i1_LCD_Char,f,c
  3361  0017B0  2E02               	decfsz	(??i1_LCD_Char+1)& (0+255),f,c
  3362  0017B2  D7FC               	goto	i1u85_25
  3363  0017B4  3A01               	swapf	??i1_LCD_Char,f,c
  3364  0017B6  4601               	rlncf	??i1_LCD_Char,f,c
  3365  0017B8  4601               	rlncf	??i1_LCD_Char,f,c
  3366  0017BA  5081               	movf	3969,w,c	;volatile
  3367  0017BC  1801               	xorwf	??i1_LCD_Char,w,c
  3368  0017BE  0BBF               	andlw	-65
  3369  0017C0  1801               	xorwf	??i1_LCD_Char,w,c
  3370  0017C2  6E81               	movwf	3969,c	;volatile
  3371                           
  3372                           ;F:/SV3_HK2/DoAn2/MPLABXProjects/I2CHandCodeAndCompute.X/lcd.c: 52:     PORTBbits.RB5 = 
      +                          char_data >> 5;
  3373  0017C4  C003  F001         	movff	i1LCD_Char@char_data,??i1_LCD_Char
  3374  0017C8  0E05               	movlw	5
  3375  0017CA  6E02               	movwf	(??i1_LCD_Char+1)& (0+255),c
  3376  0017CC                     i1u86_25:
  3377  0017CC  90D8               	bcf	status,0,c
  3378  0017CE  3201               	rrcf	??i1_LCD_Char,f,c
  3379  0017D0  2E02               	decfsz	(??i1_LCD_Char+1)& (0+255),f,c
  3380  0017D2  D7FC               	goto	i1u86_25
  3381  0017D4  3A01               	swapf	??i1_LCD_Char,f,c
  3382  0017D6  4601               	rlncf	??i1_LCD_Char,f,c
  3383  0017D8  5081               	movf	3969,w,c	;volatile
  3384  0017DA  1801               	xorwf	??i1_LCD_Char,w,c
  3385  0017DC  0BDF               	andlw	-33
  3386  0017DE  1801               	xorwf	??i1_LCD_Char,w,c
  3387  0017E0  6E81               	movwf	3969,c	;volatile
  3388                           
  3389                           ;F:/SV3_HK2/DoAn2/MPLABXProjects/I2CHandCodeAndCompute.X/lcd.c: 53:     PORTBbits.RB4 = 
      +                          char_data >> 4;
  3390  0017E2  C003  F001         	movff	i1LCD_Char@char_data,??i1_LCD_Char
  3391  0017E6  3A01               	swapf	??i1_LCD_Char,f,c
  3392  0017E8  0E0F               	movlw	15
  3393  0017EA  1601               	andwf	??i1_LCD_Char,f,c
  3394  0017EC  3A01               	swapf	??i1_LCD_Char,f,c
  3395  0017EE  5081               	movf	3969,w,c	;volatile
  3396  0017F0  1801               	xorwf	??i1_LCD_Char,w,c
  3397  0017F2  0BEF               	andlw	-17
  3398  0017F4  1801               	xorwf	??i1_LCD_Char,w,c
  3399  0017F6  6E81               	movwf	3969,c	;volatile
  3400                           
  3401                           ;F:/SV3_HK2/DoAn2/MPLABXProjects/I2CHandCodeAndCompute.X/lcd.c: 54:     PORTCbits.RC0 = 
      +                          1;
  3402  0017F8  8082               	bsf	3970,0,c	;volatile
  3403                           
  3404                           ;F:/SV3_HK2/DoAn2/MPLABXProjects/I2CHandCodeAndCompute.X/lcd.c: 55:     PORTCbits.RC1 = 
      +                          1;
  3405  0017FA  8282               	bsf	3970,1,c	;volatile
  3406                           
  3407                           ;F:/SV3_HK2/DoAn2/MPLABXProjects/I2CHandCodeAndCompute.X/lcd.c: 56:     _delay((unsigned
      +                           long)((1)*(10000000/4000.0)));
  3408  0017FC  0E04               	movlw	4
  3409  0017FE  6E01               	movwf	??i1_LCD_Char& (0+255),c
  3410  001800  0E3E               	movlw	62
  3411  001802                     i1u172_27:
  3412  001802  2EE8               	decfsz	wreg,f,c
  3413  001804  D7FE               	bra	i1u172_27
  3414  001806  2E01               	decfsz	??i1_LCD_Char& (0+255),f,c
  3415  001808  D7FC               	bra	i1u172_27
  3416                           
  3417                           ;F:/SV3_HK2/DoAn2/MPLABXProjects/I2CHandCodeAndCompute.X/lcd.c: 57:     PORTCbits.RC1 = 
      +                          0;
  3418  00180A  9282               	bcf	3970,1,c	;volatile
  3419                           
  3420                           ;F:/SV3_HK2/DoAn2/MPLABXProjects/I2CHandCodeAndCompute.X/lcd.c: 58:     _delay((unsigned
      +                           long)((2)*(10000000/4000.0)));
  3421  00180C  0E07               	movlw	7
  3422  00180E  6E01               	movwf	??i1_LCD_Char& (0+255),c
  3423  001810  0E7D               	movlw	125
  3424  001812                     i1u173_27:
  3425  001812  2EE8               	decfsz	wreg,f,c
  3426  001814  D7FE               	bra	i1u173_27
  3427  001816  2E01               	decfsz	??i1_LCD_Char& (0+255),f,c
  3428  001818  D7FC               	bra	i1u173_27
  3429  00181A  F000               	nop	
  3430                           
  3431                           ;F:/SV3_HK2/DoAn2/MPLABXProjects/I2CHandCodeAndCompute.X/lcd.c: 60:     PORTBbits.RB7 = 
      +                          char_data >> 3;
  3432  00181C  C003  F001         	movff	i1LCD_Char@char_data,??i1_LCD_Char
  3433  001820  90D8               	bcf	status,0,c
  3434  001822  3201               	rrcf	??i1_LCD_Char,f,c
  3435  001824  90D8               	bcf	status,0,c
  3436  001826  3201               	rrcf	??i1_LCD_Char,f,c
  3437  001828  90D8               	bcf	status,0,c
  3438  00182A  3201               	rrcf	??i1_LCD_Char,f,c
  3439  00182C  3201               	rrcf	??i1_LCD_Char,f,c
  3440  00182E  3201               	rrcf	??i1_LCD_Char,f,c
  3441  001830  5081               	movf	3969,w,c	;volatile
  3442  001832  1801               	xorwf	??i1_LCD_Char,w,c
  3443  001834  0B7F               	andlw	-129
  3444  001836  1801               	xorwf	??i1_LCD_Char,w,c
  3445  001838  6E81               	movwf	3969,c	;volatile
  3446                           
  3447                           ;F:/SV3_HK2/DoAn2/MPLABXProjects/I2CHandCodeAndCompute.X/lcd.c: 61:     PORTBbits.RB6 = 
      +                          char_data >> 2;
  3448  00183A  C003  F001         	movff	i1LCD_Char@char_data,??i1_LCD_Char
  3449  00183E  90D8               	bcf	status,0,c
  3450  001840  3201               	rrcf	??i1_LCD_Char,f,c
  3451  001842  90D8               	bcf	status,0,c
  3452  001844  3201               	rrcf	??i1_LCD_Char,f,c
  3453  001846  3A01               	swapf	??i1_LCD_Char,f,c
  3454  001848  4601               	rlncf	??i1_LCD_Char,f,c
  3455  00184A  4601               	rlncf	??i1_LCD_Char,f,c
  3456  00184C  5081               	movf	3969,w,c	;volatile
  3457  00184E  1801               	xorwf	??i1_LCD_Char,w,c
  3458  001850  0BBF               	andlw	-65
  3459  001852  1801               	xorwf	??i1_LCD_Char,w,c
  3460  001854  6E81               	movwf	3969,c	;volatile
  3461                           
  3462                           ;F:/SV3_HK2/DoAn2/MPLABXProjects/I2CHandCodeAndCompute.X/lcd.c: 62:     PORTBbits.RB5 = 
      +                          char_data >> 1;
  3463  001856  C003  F001         	movff	i1LCD_Char@char_data,??i1_LCD_Char
  3464  00185A  90D8               	bcf	status,0,c
  3465  00185C  3201               	rrcf	??i1_LCD_Char,f,c
  3466  00185E  3A01               	swapf	??i1_LCD_Char,f,c
  3467  001860  4601               	rlncf	??i1_LCD_Char,f,c
  3468  001862  5081               	movf	3969,w,c	;volatile
  3469  001864  1801               	xorwf	??i1_LCD_Char,w,c
  3470  001866  0BDF               	andlw	-33
  3471  001868  1801               	xorwf	??i1_LCD_Char,w,c
  3472  00186A  6E81               	movwf	3969,c	;volatile
  3473                           
  3474                           ;F:/SV3_HK2/DoAn2/MPLABXProjects/I2CHandCodeAndCompute.X/lcd.c: 63:     PORTBbits.RB4 = 
      +                          char_data;
  3475  00186C  B003               	btfsc	i1LCD_Char@char_data,0,c
  3476  00186E  D002               	bra	i1u87_25
  3477  001870  9881               	bcf	3969,4,c	;volatile
  3478  001872  D001               	bra	i1u87_26
  3479  001874                     i1u87_25:
  3480  001874  8881               	bsf	3969,4,c	;volatile
  3481  001876                     i1u87_26:
  3482                           
  3483                           ;F:/SV3_HK2/DoAn2/MPLABXProjects/I2CHandCodeAndCompute.X/lcd.c: 64:     PORTCbits.RC1 = 
      +                          1;
  3484  001876  8282               	bsf	3970,1,c	;volatile
  3485                           
  3486                           ;F:/SV3_HK2/DoAn2/MPLABXProjects/I2CHandCodeAndCompute.X/lcd.c: 65:     _delay((unsigned
      +                           long)((1)*(10000000/4000.0)));
  3487  001878  0E04               	movlw	4
  3488  00187A  6E01               	movwf	??i1_LCD_Char& (0+255),c
  3489  00187C  0E3E               	movlw	62
  3490  00187E                     i1u174_27:
  3491  00187E  2EE8               	decfsz	wreg,f,c
  3492  001880  D7FE               	bra	i1u174_27
  3493  001882  2E01               	decfsz	??i1_LCD_Char& (0+255),f,c
  3494  001884  D7FC               	bra	i1u174_27
  3495                           
  3496                           ;F:/SV3_HK2/DoAn2/MPLABXProjects/I2CHandCodeAndCompute.X/lcd.c: 66:     PORTCbits.RC1 = 
      +                          0;
  3497  001886  9282               	bcf	3970,1,c	;volatile
  3498                           
  3499                           ;F:/SV3_HK2/DoAn2/MPLABXProjects/I2CHandCodeAndCompute.X/lcd.c: 67:     _delay((unsigned
      +                           long)((5)*(10000000/4000.0)));
  3500  001888  0E11               	movlw	17
  3501  00188A  6E01               	movwf	??i1_LCD_Char& (0+255),c
  3502  00188C  0E3A               	movlw	58
  3503  00188E                     i1u175_27:
  3504  00188E  2EE8               	decfsz	wreg,f,c
  3505  001890  D7FE               	bra	i1u175_27
  3506  001892  2E01               	decfsz	??i1_LCD_Char& (0+255),f,c
  3507  001894  D7FC               	bra	i1u175_27
  3508  001896  D000               	nop2	
  3509  001898  0012               	return		;funcret
  3510  00189A                     __end_ofi1_LCD_Char:
  3511                           	opt callstack 0
  3512                           
  3513 ;; *************** function i1_LCD_Command *****************
  3514 ;; Defined at:
  3515 ;;		line 25 in file "F:/SV3_HK2/DoAn2/MPLABXProjects/I2CHandCodeAndCompute.X/lcd.c"
  3516 ;; Parameters:    Size  Location     Type
  3517 ;;  cmnd            1    wreg     unsigned char 
  3518 ;; Auto vars:     Size  Location     Type
  3519 ;;  cmnd            1    3[COMRAM] unsigned char 
  3520 ;;  LCD_Command     1    0        unsigned char 
  3521 ;; Return value:  Size  Location     Type
  3522 ;;                  1    wreg      void 
  3523 ;; Registers used:
  3524 ;;		wreg, status,2, status,0
  3525 ;; Tracked objects:
  3526 ;;		On entry : 0/0
  3527 ;;		On exit  : 0/0
  3528 ;;		Unchanged: 0/0
  3529 ;; Data sizes:     COMRAM   BANK0   BANK1   BANK2   BANK3   BANK4   BANK5   BANK6   BANK7   BANK8   BANK9  BANK10  BANK1
      +1  BANK12  BANK13  BANK14  BANK15
  3530 ;;      Params:         0       0       0       0       0       0       0       0       0       0       0       0       
      +0       0       0       0       0
  3531 ;;      Locals:         2       0       0       0       0       0       0       0       0       0       0       0       
      +0       0       0       0       0
  3532 ;;      Temps:          2       0       0       0       0       0       0       0       0       0       0       0       
      +0       0       0       0       0
  3533 ;;      Totals:         4       0       0       0       0       0       0       0       0       0       0       0       
      +0       0       0       0       0
  3534 ;;Total ram usage:        4 bytes
  3535 ;; Hardware stack levels used:    1
  3536 ;; This function calls:
  3537 ;;		Nothing
  3538 ;; This function is called by:
  3539 ;;		_LCD_String_xy
  3540 ;; This function uses a non-reentrant model
  3541 ;;
  3542                           
  3543                           	psect	text26
  3544  00189A                     __ptext26:
  3545                           	opt callstack 0
  3546  00189A                     i1_LCD_Command:
  3547                           	opt callstack 25
  3548                           
  3549                           ;incstack = 0
  3550                           ;i1LCD_Command@cmnd stored from wreg
  3551  00189A  6E04               	movwf	i1LCD_Command@cmnd,c
  3552                           
  3553                           ;F:/SV3_HK2/DoAn2/MPLABXProjects/I2CHandCodeAndCompute.X/lcd.c: 27:     PORTBbits.RB7 = 
      +                          cmnd >> 7;
  3554  00189C  6A01               	clrf	??i1_LCD_Command& (0+255),c
  3555  00189E  AE04               	btfss	i1LCD_Command@cmnd,7,c
  3556  0018A0  D001               	bra	i1u88_25
  3557  0018A2  2A01               	incf	??i1_LCD_Command& (0+255),f,c
  3558  0018A4                     i1u88_25:
  3559  0018A4  3201               	rrcf	??i1_LCD_Command,f,c
  3560  0018A6  3201               	rrcf	??i1_LCD_Command,f,c
  3561  0018A8  5081               	movf	3969,w,c	;volatile
  3562  0018AA  1801               	xorwf	??i1_LCD_Command,w,c
  3563  0018AC  0B7F               	andlw	-129
  3564  0018AE  1801               	xorwf	??i1_LCD_Command,w,c
  3565  0018B0  6E81               	movwf	3969,c	;volatile
  3566                           
  3567                           ;F:/SV3_HK2/DoAn2/MPLABXProjects/I2CHandCodeAndCompute.X/lcd.c: 28:     PORTBbits.RB6 = 
      +                          cmnd >> 6;
  3568  0018B2  C004  F001         	movff	i1LCD_Command@cmnd,??i1_LCD_Command
  3569  0018B6  0E06               	movlw	6
  3570  0018B8  6E02               	movwf	(??i1_LCD_Command+1)& (0+255),c
  3571  0018BA                     i1u89_25:
  3572  0018BA  90D8               	bcf	status,0,c
  3573  0018BC  3201               	rrcf	??i1_LCD_Command,f,c
  3574  0018BE  2E02               	decfsz	(??i1_LCD_Command+1)& (0+255),f,c
  3575  0018C0  D7FC               	goto	i1u89_25
  3576  0018C2  3A01               	swapf	??i1_LCD_Command,f,c
  3577  0018C4  4601               	rlncf	??i1_LCD_Command,f,c
  3578  0018C6  4601               	rlncf	??i1_LCD_Command,f,c
  3579  0018C8  5081               	movf	3969,w,c	;volatile
  3580  0018CA  1801               	xorwf	??i1_LCD_Command,w,c
  3581  0018CC  0BBF               	andlw	-65
  3582  0018CE  1801               	xorwf	??i1_LCD_Command,w,c
  3583  0018D0  6E81               	movwf	3969,c	;volatile
  3584                           
  3585                           ;F:/SV3_HK2/DoAn2/MPLABXProjects/I2CHandCodeAndCompute.X/lcd.c: 29:     PORTBbits.RB5 = 
      +                          cmnd >> 5;
  3586  0018D2  C004  F001         	movff	i1LCD_Command@cmnd,??i1_LCD_Command
  3587  0018D6  0E05               	movlw	5
  3588  0018D8  6E02               	movwf	(??i1_LCD_Command+1)& (0+255),c
  3589  0018DA                     i1u90_25:
  3590  0018DA  90D8               	bcf	status,0,c
  3591  0018DC  3201               	rrcf	??i1_LCD_Command,f,c
  3592  0018DE  2E02               	decfsz	(??i1_LCD_Command+1)& (0+255),f,c
  3593  0018E0  D7FC               	goto	i1u90_25
  3594  0018E2  3A01               	swapf	??i1_LCD_Command,f,c
  3595  0018E4  4601               	rlncf	??i1_LCD_Command,f,c
  3596  0018E6  5081               	movf	3969,w,c	;volatile
  3597  0018E8  1801               	xorwf	??i1_LCD_Command,w,c
  3598  0018EA  0BDF               	andlw	-33
  3599  0018EC  1801               	xorwf	??i1_LCD_Command,w,c
  3600  0018EE  6E81               	movwf	3969,c	;volatile
  3601                           
  3602                           ;F:/SV3_HK2/DoAn2/MPLABXProjects/I2CHandCodeAndCompute.X/lcd.c: 30:     PORTBbits.RB4 = 
      +                          cmnd >> 4;
  3603  0018F0  C004  F001         	movff	i1LCD_Command@cmnd,??i1_LCD_Command
  3604  0018F4  3A01               	swapf	??i1_LCD_Command,f,c
  3605  0018F6  0E0F               	movlw	15
  3606  0018F8  1601               	andwf	??i1_LCD_Command,f,c
  3607  0018FA  3A01               	swapf	??i1_LCD_Command,f,c
  3608  0018FC  5081               	movf	3969,w,c	;volatile
  3609  0018FE  1801               	xorwf	??i1_LCD_Command,w,c
  3610  001900  0BEF               	andlw	-17
  3611  001902  1801               	xorwf	??i1_LCD_Command,w,c
  3612  001904  6E81               	movwf	3969,c	;volatile
  3613                           
  3614                           ;F:/SV3_HK2/DoAn2/MPLABXProjects/I2CHandCodeAndCompute.X/lcd.c: 31:     PORTCbits.RC0 = 
      +                          0;
  3615  001906  9082               	bcf	3970,0,c	;volatile
  3616                           
  3617                           ;F:/SV3_HK2/DoAn2/MPLABXProjects/I2CHandCodeAndCompute.X/lcd.c: 32:     PORTCbits.RC1 = 
      +                          1;
  3618  001908  8282               	bsf	3970,1,c	;volatile
  3619                           
  3620                           ;F:/SV3_HK2/DoAn2/MPLABXProjects/I2CHandCodeAndCompute.X/lcd.c: 33:     _delay((unsigned
      +                           long)((1)*(10000000/4000.0)));
  3621  00190A  0E04               	movlw	4
  3622  00190C  6E01               	movwf	??i1_LCD_Command& (0+255),c
  3623  00190E  0E3E               	movlw	62
  3624  001910                     i1u176_27:
  3625  001910  2EE8               	decfsz	wreg,f,c
  3626  001912  D7FE               	bra	i1u176_27
  3627  001914  2E01               	decfsz	??i1_LCD_Command& (0+255),f,c
  3628  001916  D7FC               	bra	i1u176_27
  3629                           
  3630                           ;F:/SV3_HK2/DoAn2/MPLABXProjects/I2CHandCodeAndCompute.X/lcd.c: 34:     PORTCbits.RC1 = 
      +                          0;
  3631  001918  9282               	bcf	3970,1,c	;volatile
  3632                           
  3633                           ;F:/SV3_HK2/DoAn2/MPLABXProjects/I2CHandCodeAndCompute.X/lcd.c: 35:     _delay((unsigned
      +                           long)((2)*(10000000/4000.0)));
  3634  00191A  0E07               	movlw	7
  3635  00191C  6E01               	movwf	??i1_LCD_Command& (0+255),c
  3636  00191E  0E7D               	movlw	125
  3637  001920                     i1u177_27:
  3638  001920  2EE8               	decfsz	wreg,f,c
  3639  001922  D7FE               	bra	i1u177_27
  3640  001924  2E01               	decfsz	??i1_LCD_Command& (0+255),f,c
  3641  001926  D7FC               	bra	i1u177_27
  3642  001928  F000               	nop	
  3643                           
  3644                           ;F:/SV3_HK2/DoAn2/MPLABXProjects/I2CHandCodeAndCompute.X/lcd.c: 37:     PORTBbits.RB7 = 
      +                          cmnd >> 3;
  3645  00192A  C004  F001         	movff	i1LCD_Command@cmnd,??i1_LCD_Command
  3646  00192E  90D8               	bcf	status,0,c
  3647  001930  3201               	rrcf	??i1_LCD_Command,f,c
  3648  001932  90D8               	bcf	status,0,c
  3649  001934  3201               	rrcf	??i1_LCD_Command,f,c
  3650  001936  90D8               	bcf	status,0,c
  3651  001938  3201               	rrcf	??i1_LCD_Command,f,c
  3652  00193A  3201               	rrcf	??i1_LCD_Command,f,c
  3653  00193C  3201               	rrcf	??i1_LCD_Command,f,c
  3654  00193E  5081               	movf	3969,w,c	;volatile
  3655  001940  1801               	xorwf	??i1_LCD_Command,w,c
  3656  001942  0B7F               	andlw	-129
  3657  001944  1801               	xorwf	??i1_LCD_Command,w,c
  3658  001946  6E81               	movwf	3969,c	;volatile
  3659                           
  3660                           ;F:/SV3_HK2/DoAn2/MPLABXProjects/I2CHandCodeAndCompute.X/lcd.c: 38:     PORTBbits.RB6 = 
      +                          cmnd >> 2;
  3661  001948  C004  F001         	movff	i1LCD_Command@cmnd,??i1_LCD_Command
  3662  00194C  90D8               	bcf	status,0,c
  3663  00194E  3201               	rrcf	??i1_LCD_Command,f,c
  3664  001950  90D8               	bcf	status,0,c
  3665  001952  3201               	rrcf	??i1_LCD_Command,f,c
  3666  001954  3A01               	swapf	??i1_LCD_Command,f,c
  3667  001956  4601               	rlncf	??i1_LCD_Command,f,c
  3668  001958  4601               	rlncf	??i1_LCD_Command,f,c
  3669  00195A  5081               	movf	3969,w,c	;volatile
  3670  00195C  1801               	xorwf	??i1_LCD_Command,w,c
  3671  00195E  0BBF               	andlw	-65
  3672  001960  1801               	xorwf	??i1_LCD_Command,w,c
  3673  001962  6E81               	movwf	3969,c	;volatile
  3674                           
  3675                           ;F:/SV3_HK2/DoAn2/MPLABXProjects/I2CHandCodeAndCompute.X/lcd.c: 39:     PORTBbits.RB5 = 
      +                          cmnd >> 1;
  3676  001964  C004  F001         	movff	i1LCD_Command@cmnd,??i1_LCD_Command
  3677  001968  90D8               	bcf	status,0,c
  3678  00196A  3201               	rrcf	??i1_LCD_Command,f,c
  3679  00196C  3A01               	swapf	??i1_LCD_Command,f,c
  3680  00196E  4601               	rlncf	??i1_LCD_Command,f,c
  3681  001970  5081               	movf	3969,w,c	;volatile
  3682  001972  1801               	xorwf	??i1_LCD_Command,w,c
  3683  001974  0BDF               	andlw	-33
  3684  001976  1801               	xorwf	??i1_LCD_Command,w,c
  3685  001978  6E81               	movwf	3969,c	;volatile
  3686                           
  3687                           ;F:/SV3_HK2/DoAn2/MPLABXProjects/I2CHandCodeAndCompute.X/lcd.c: 40:     PORTBbits.RB4 = 
      +                          cmnd;
  3688  00197A  B004               	btfsc	i1LCD_Command@cmnd,0,c
  3689  00197C  D002               	bra	i1u91_25
  3690  00197E  9881               	bcf	3969,4,c	;volatile
  3691  001980  D001               	bra	i1u91_26
  3692  001982                     i1u91_25:
  3693  001982  8881               	bsf	3969,4,c	;volatile
  3694  001984                     i1u91_26:
  3695                           
  3696                           ;F:/SV3_HK2/DoAn2/MPLABXProjects/I2CHandCodeAndCompute.X/lcd.c: 41:     PORTCbits.RC1 = 
      +                          1;
  3697  001984  8282               	bsf	3970,1,c	;volatile
  3698                           
  3699                           ;F:/SV3_HK2/DoAn2/MPLABXProjects/I2CHandCodeAndCompute.X/lcd.c: 42:     _delay((unsigned
      +                           long)((1)*(10000000/4000.0)));
  3700  001986  0E04               	movlw	4
  3701  001988  6E01               	movwf	??i1_LCD_Command& (0+255),c
  3702  00198A  0E3E               	movlw	62
  3703  00198C                     i1u178_27:
  3704  00198C  2EE8               	decfsz	wreg,f,c
  3705  00198E  D7FE               	bra	i1u178_27
  3706  001990  2E01               	decfsz	??i1_LCD_Command& (0+255),f,c
  3707  001992  D7FC               	bra	i1u178_27
  3708                           
  3709                           ;F:/SV3_HK2/DoAn2/MPLABXProjects/I2CHandCodeAndCompute.X/lcd.c: 43:     PORTCbits.RC1 = 
      +                          0;
  3710  001994  9282               	bcf	3970,1,c	;volatile
  3711                           
  3712                           ;F:/SV3_HK2/DoAn2/MPLABXProjects/I2CHandCodeAndCompute.X/lcd.c: 44:     _delay((unsigned
      +                           long)((5)*(10000000/4000.0)));
  3713  001996  0E11               	movlw	17
  3714  001998  6E01               	movwf	??i1_LCD_Command& (0+255),c
  3715  00199A  0E3A               	movlw	58
  3716  00199C                     i1u179_27:
  3717  00199C  2EE8               	decfsz	wreg,f,c
  3718  00199E  D7FE               	bra	i1u179_27
  3719  0019A0  2E01               	decfsz	??i1_LCD_Command& (0+255),f,c
  3720  0019A2  D7FC               	bra	i1u179_27
  3721  0019A4  D000               	nop2	
  3722  0019A6  0012               	return		;funcret
  3723  0019A8                     __end_ofi1_LCD_Command:
  3724                           	opt callstack 0
  3725                           
  3726                           	psect	rparam
  3727  0000                     
  3728                           	psect	temp
  3729  00005B                     btemp:
  3730                           	opt callstack 0
  3731  00005B                     	ds	1
  3732  0000                     int$flags	set	btemp
  3733  0000                     wtemp8	set	btemp+1
  3734  0000                     ttemp5	set	btemp+1
  3735  0000                     ttemp6	set	btemp+4
  3736  0000                     ttemp7	set	btemp+8
  3737                           tosu	equ	0xFFF
  3738                           tosh	equ	0xFFE
  3739                           tosl	equ	0xFFD
  3740                           stkptr	equ	0xFFC
  3741                           pclatu	equ	0xFFB
  3742                           pclath	equ	0xFFA
  3743                           pcl	equ	0xFF9
  3744                           tblptru	equ	0xFF8
  3745                           tblptrh	equ	0xFF7
  3746                           tblptrl	equ	0xFF6
  3747                           tablat	equ	0xFF5
  3748                           prodh	equ	0xFF4
  3749                           prodl	equ	0xFF3
  3750                           indf0	equ	0xFEF
  3751                           postinc0	equ	0xFEE
  3752                           postdec0	equ	0xFED
  3753                           preinc0	equ	0xFEC
  3754                           plusw0	equ	0xFEB
  3755                           fsr0h	equ	0xFEA
  3756                           fsr0l	equ	0xFE9
  3757                           wreg	equ	0xFE8
  3758                           indf1	equ	0xFE7
  3759                           postinc1	equ	0xFE6
  3760                           postdec1	equ	0xFE5
  3761                           preinc1	equ	0xFE4
  3762                           plusw1	equ	0xFE3
  3763                           fsr1h	equ	0xFE2
  3764                           fsr1l	equ	0xFE1
  3765                           bsr	equ	0xFE0
  3766                           indf2	equ	0xFDF
  3767                           postinc2	equ	0xFDE
  3768                           postdec2	equ	0xFDD
  3769                           preinc2	equ	0xFDC
  3770                           plusw2	equ	0xFDB
  3771                           fsr2h	equ	0xFDA
  3772                           fsr2l	equ	0xFD9
  3773                           status	equ	0xFD8


Data Sizes:
    Strings     21
    Constant    0
    Data        6
    BSS         0
    Persistent  0
    Stack       0

Auto Spaces:
    Space          Size  Autos    Used
    COMRAM           94     84      90
    BANK0           160      9       9
    BANK1           256      0       0
    BANK2           256      0       0
    BANK3           256      0       0
    BANK4           256      0       0
    BANK5           256      0       0
    BANK6           256      0       0
    BANK7           256      0       0
    BANK8           256      0       0
    BANK9           256      0       0
    BANK10          256      0       0
    BANK11          256      0       0
    BANK12          256      0       0
    BANK13          256      0       0
    BANK14          256      0       0
    BANK15           96      0       0

Pointer List with Targets:

    LCD_String_xy@str	PTR unsigned char  size(2) Largest target is 6
		 -> printValue@str(COMRAM[6]), 

    LCD_String@str	PTR unsigned char  size(2) Largest target is 16
		 -> STR_2(CODE[5]), printValue@str(COMRAM[6]), STR_1(CODE[16]), 


Critical Paths under _main in COMRAM

    None.

Critical Paths under _timer_interrupt in COMRAM

    _timer_interrupt->_printValue
    _readByte->_I2C_Master_Read
    _printValue->___fltol
    ___fltol->___fldiv
    ___fldiv->___xxtofl
    _LCD_String_xy->i1_LCD_String
    i1_LCD_String->i1_LCD_Char

Critical Paths under _main in BANK0

    _main->_LCD_String
    _LCD_String->_LCD_Char
    _LCD_Init->_LCD_Command

Critical Paths under _timer_interrupt in BANK0

    None.

Critical Paths under _main in BANK1

    None.

Critical Paths under _timer_interrupt in BANK1

    None.

Critical Paths under _main in BANK2

    None.

Critical Paths under _timer_interrupt in BANK2

    None.

Critical Paths under _main in BANK3

    None.

Critical Paths under _timer_interrupt in BANK3

    None.

Critical Paths under _main in BANK4

    None.

Critical Paths under _timer_interrupt in BANK4

    None.

Critical Paths under _main in BANK5

    None.

Critical Paths under _timer_interrupt in BANK5

    None.

Critical Paths under _main in BANK6

    None.

Critical Paths under _timer_interrupt in BANK6

    None.

Critical Paths under _main in BANK7

    None.

Critical Paths under _timer_interrupt in BANK7

    None.

Critical Paths under _main in BANK8

    None.

Critical Paths under _timer_interrupt in BANK8

    None.

Critical Paths under _main in BANK9

    None.

Critical Paths under _timer_interrupt in BANK9

    None.

Critical Paths under _main in BANK10

    None.

Critical Paths under _timer_interrupt in BANK10

    None.

Critical Paths under _main in BANK11

    None.

Critical Paths under _timer_interrupt in BANK11

    None.

Critical Paths under _main in BANK12

    None.

Critical Paths under _timer_interrupt in BANK12

    None.

Critical Paths under _main in BANK13

    None.

Critical Paths under _timer_interrupt in BANK13

    None.

Critical Paths under _main in BANK14

    None.

Critical Paths under _timer_interrupt in BANK14

    None.

Critical Paths under _main in BANK15

    None.

Critical Paths under _timer_interrupt in BANK15

    None.

Call Graph Tables:

 ---------------------------------------------------------------------------------
 (Depth) Function   	        Calls       Base Space   Used Autos Params    Refs
 ---------------------------------------------------------------------------------
 (0) _main                                                 0     0      0     619
                    _I2C_Master_Init
                           _LCD_Init
                         _LCD_String
                     _init_interrupt
              _init_interrupt_timer0
                       _setup_timer0
 ---------------------------------------------------------------------------------
 (1) _setup_timer0                                         0     0      0       0
 ---------------------------------------------------------------------------------
 (1) _init_interrupt_timer0                                0     0      0       0
 ---------------------------------------------------------------------------------
 (1) _init_interrupt                                       0     0      0       0
 ---------------------------------------------------------------------------------
 (1) _LCD_String                                           6     4      2     442
                                              3 BANK0      6     4      2
                           _LCD_Char
 ---------------------------------------------------------------------------------
 (2) _LCD_Char                                             3     3      0     176
                                              0 BANK0      3     3      0
 ---------------------------------------------------------------------------------
 (1) _LCD_Init                                             1     1      0     177
                                              4 BANK0      1     1      0
                        _LCD_Command
 ---------------------------------------------------------------------------------
 (2) _LCD_Command                                          4     4      0     177
                                              0 BANK0      4     4      0
 ---------------------------------------------------------------------------------
 (1) _I2C_Master_Init                                      0     0      0       0
 ---------------------------------------------------------------------------------
 Estimated maximum stack depth 2
 ---------------------------------------------------------------------------------
 (Depth) Function   	        Calls       Base Space   Used Autos Params    Refs
 ---------------------------------------------------------------------------------
 (3) _timer_interrupt                                     15    15      0    4593
                                             69 COMRAM    15    15      0
                         _printValue
                           _readByte
                     i1_setup_timer0
 ---------------------------------------------------------------------------------
 (4) i1_setup_timer0                                       0     0      0       0
 ---------------------------------------------------------------------------------
 (4) _readByte                                             6     4      2      92
                                              3 COMRAM     6     4      2
                    _I2C_Master_Read
                   _I2C_Master_Start
                    _I2C_Master_Stop
                   _I2C_Master_Write
 ---------------------------------------------------------------------------------
 (5) _I2C_Master_Write                                     1     1      0      15
                                              0 COMRAM     1     1      0
                    _I2C_Master_Wait
 ---------------------------------------------------------------------------------
 (5) _I2C_Master_Stop                                      0     0      0       0
                    _I2C_Master_Wait
 ---------------------------------------------------------------------------------
 (5) _I2C_Master_Start                                     0     0      0       0
                    _I2C_Master_Wait
 ---------------------------------------------------------------------------------
 (5) _I2C_Master_Read                                      3     3      0      30
                                              0 COMRAM     3     3      0
                    _I2C_Master_Wait
 ---------------------------------------------------------------------------------
 (6) _I2C_Master_Wait                                      0     0      0       0
 ---------------------------------------------------------------------------------
 (4) _printValue                                          20    18      2    4478
                                             49 COMRAM    20    18      2
                      _LCD_String_xy
                            ___aldiv
                            ___almod
                            ___fldiv
                            ___fltol
                           ___xxtofl
                       i1_LCD_String
 ---------------------------------------------------------------------------------
 (5) ___xxtofl                                            14    10      4     398
                                              0 COMRAM    14    10      4
 ---------------------------------------------------------------------------------
 (5) ___fltol                                             10     6      4     305
                                             39 COMRAM    10     6      4
                            ___fldiv (ARG)
                           ___xxtofl (ARG)
 ---------------------------------------------------------------------------------
 (5) ___fldiv                                             25    17      8    1399
                                             14 COMRAM    25    17      8
                           ___xxtofl (ARG)
 ---------------------------------------------------------------------------------
 (5) ___almod                                             10     2      8     448
                                              0 COMRAM    10     2      8
 ---------------------------------------------------------------------------------
 (5) ___aldiv                                             14     6      8     452
                                              0 COMRAM    14     6      8
 ---------------------------------------------------------------------------------
 (5) _LCD_String_xy                                        4     1      3     757
                                              9 COMRAM     4     1      3
                      i1_LCD_Command
                       i1_LCD_String
 ---------------------------------------------------------------------------------
 (5) i1_LCD_String                                         6     4      2     318
                                              3 COMRAM     6     4      2
                         i1_LCD_Char
 ---------------------------------------------------------------------------------
 (6) i1_LCD_Char                                           3     3      0     176
                                              0 COMRAM     3     3      0
 ---------------------------------------------------------------------------------
 (6) i1_LCD_Command                                        4     4      0     177
                                              0 COMRAM     4     4      0
 ---------------------------------------------------------------------------------
 Estimated maximum stack depth 6
 ---------------------------------------------------------------------------------

 Call Graph Graphs:

 _main (ROOT)
   _I2C_Master_Init
   _LCD_Init
     _LCD_Command
   _LCD_String
     _LCD_Char
   _init_interrupt
   _init_interrupt_timer0
   _setup_timer0

 _timer_interrupt (ROOT)
   _printValue
     _LCD_String_xy
       i1_LCD_Command
       i1_LCD_String
         i1_LCD_Char
     ___aldiv
     ___almod
     ___fldiv
       ___xxtofl (ARG)
     ___fltol
       ___fldiv (ARG)
         ___xxtofl (ARG)
       ___xxtofl (ARG)
     ___xxtofl
     i1_LCD_String
       i1_LCD_Char
   _readByte
     _I2C_Master_Read
       _I2C_Master_Wait
     _I2C_Master_Start
       _I2C_Master_Wait
     _I2C_Master_Stop
       _I2C_Master_Wait
     _I2C_Master_Write
       _I2C_Master_Wait
   i1_setup_timer0

 Address spaces:
Name               Size   Autos  Total    Cost      Usage
BIGRAM             F5F      0       0      37        0.0%
EEDATA             400      0       0       0        0.0%
BITBANK14          100      0       0      33        0.0%
BANK14             100      0       0      34        0.0%
BITBANK13          100      0       0      30        0.0%
BANK13             100      0       0      31        0.0%
BITBANK12          100      0       0      28        0.0%
BANK12             100      0       0      29        0.0%
BITBANK11          100      0       0      26        0.0%
BANK11             100      0       0      27        0.0%
BITBANK10          100      0       0      24        0.0%
BANK10             100      0       0      25        0.0%
BITBANK9           100      0       0      22        0.0%
BANK9              100      0       0      23        0.0%
BITBANK8           100      0       0      20        0.0%
BANK8              100      0       0      21        0.0%
BITBANK7           100      0       0      18        0.0%
BANK7              100      0       0      19        0.0%
BITBANK6           100      0       0      16        0.0%
BANK6              100      0       0      17        0.0%
BITBANK5           100      0       0      14        0.0%
BANK5              100      0       0      15        0.0%
BITBANK4           100      0       0      12        0.0%
BANK4              100      0       0      13        0.0%
BITBANK3           100      0       0      10        0.0%
BANK3              100      0       0      11        0.0%
BITBANK2           100      0       0       8        0.0%
BANK2              100      0       0       9        0.0%
BITBANK1           100      0       0       6        0.0%
BANK1              100      0       0       7        0.0%
BITBANK0            A0      0       0       4        0.0%
BANK0               A0      9       9       5        5.6%
BITBANK15           60      0       0      35        0.0%
BANK15              60      0       0      36        0.0%
BITCOMRAM           5E      0       0       0        0.0%
COMRAM              5E     54      5A       1       95.7%
BITSFR               0      0       0     200        0.0%
SFR                  0      0       0     200        0.0%
STACK                0      0       0       2        0.0%
NULL                 0      0       0       0        0.0%
ABS                  0      0      63      32        0.0%
DATA                 0      0      63       3        0.0%
CODE                 0      0       0       0        0.0%


Microchip Technology PIC18 Macro Assembler V2.05 build -831301201 
Symbol Table                                                                                   Wed May 08 11:48:31 2019

                  ___fldiv@aexp 0027                    ___fldiv@bexp 0026                    ___fldiv@sign 001F  
                  ?_LCD_Command 0001                     _SSPSTATbits 000FC7                ??_init_interrupt 0060  
                            l40 1E1C                              bsr 000FE0                     __CFG_BORV$3 000000  
                   ?_LCD_String 0063                    __CFG_CP0$OFF 000000                    __CFG_CP1$OFF 000000  
                  __CFG_CP2$OFF 000000                    __CFG_CP3$OFF 000000                     __CFG_OSC$HS 000000  
                  __CFG_CP4$OFF 000000                    __CFG_CP5$OFF 000000                    __CFG_CP6$OFF 000000  
                  __CFG_CP7$OFF 000000                    __CFG_CPB$OFF 000000                    __CFG_CPD$OFF 000000  
                           u975 167C                             u985 1692                             u995 16B2  
                           wreg 000FE8                    __CFG_MODE$MC 000000                    __CFG_LVP$OFF 000000  
                i1_setup_timer0 1E70                    ___fltol@exp1 0031                    __CFG_WDT$OFF 000000  
                   ?i1_LCD_Char 0001                            l2010 1C20                            l2006 1BE6  
                          STR_1 1001                            STR_2 1011                            u1005 1760  
                          u1006 1762                            u1015 155E                            u1025 1574  
                          u1035 1594                            u1045 1642                            u1046 1644  
                          u1600 1C4E                            u1607 1C44                            u1707 1780  
                          u1627 15CC                            u1637 15E0                            u1590 1C16  
                          u1647 164E                            u1657 1662                            u1667 1D34  
                          u1677 16EA                            u1597 1C0C                            u1687 16FE  
                          u1697 176C                            _WREG 000FE8           _init_interrupt_timer0 1E50  
                          _main 1DFA                            fsr0h 000FEA                            fsr1h 000FE2  
                          indf0 000FEF                            fsr2h 000FDA                            fsr0l 000FE9  
                          indf1 000FE7                            indf2 000FDF                            fsr1l 000FE1  
                          fsr2l 000FD9                            btemp 005B                            start 00A4  
                 __CFG_IESO$OFF 000000                 ___fldiv@new_exp 0020                   _LCD_String_xy 1D9A  
                 __CFG_MCLRE$ON 000000                    ___param_bank 000000                __end_of_LCD_Char 166E  
              __end_of_LCD_Init 1D64                   printValue@lux 0032                ?_I2C_Master_Init 0001  
              ?_I2C_Master_Read 0001                   printValue@str 0038                ?_I2C_Master_Wait 0001  
              ?_I2C_Master_Stop 0001                   __CFG_WAIT$OFF 000000                   ___fltol@sign1 0030  
               __end_of___aldiv 1A74                 __end_of___almod 1BDA                           ?_main 0001  
               __end_of___fldiv 12A0                 __end_of___fltol 1B2E                           _T0CON 000FD5  
                         i1l125 1E42                           i1l833 14CC                           i1l826 144E  
                         i1l755 118A                           i1l766 11F8                           i1l767 11F4  
                         _TMR0H 000FD7                           _TMR0L 000FD6                   __CFG_PWRT$OFF 000000  
                 __CFG_WRT0$OFF 000000                   __CFG_WRT1$OFF 000000                   __CFG_WRT2$OFF 000000  
                 __CFG_WRT3$OFF 000000                   __CFG_WRT4$OFF 000000                     LCD_String@i 0067  
                 __CFG_WRT5$OFF 000000                   __CFG_WRT6$OFF 000000                   __CFG_WRT7$OFF 000000  
        __end_ofi1_setup_timer0 1E7E                  __CFG_EBTR0$OFF 000000                  __CFG_FCMEN$OFF 000000  
                __CFG_EBTR1$OFF 000000                  __CFG_EBTR2$OFF 000000                  __CFG_EBTR3$OFF 000000  
                __CFG_EBTR4$OFF 000000                  __CFG_EBTR5$OFF 000000                  __CFG_EBTR6$OFF 000000  
                __CFG_EBTR7$OFF 000000                   __CFG_WRTB$OFF 000000                   __CFG_WRTC$OFF 000000  
                 __CFG_WRTD$OFF 000000                  __CFG_EBTRB$OFF 000000                           tablat 000FF5  
                         plusw1 000FE3                           plusw2 000FDB                           ttemp5 005C  
                         ttemp6 005F                           ttemp7 0063                           status 000FD8  
                         wtemp8 005C             __size_of_LCD_String 007C                  ?_LCD_String_xy 000A  
               __initialization 1DCC                    __end_of_main 1E1E             __size_ofi1_LCD_Char 010E  
      __size_of_timer_interrupt 008C                          ??_main 0069                   __activetblptr 000002  
             ?_I2C_Master_Start 0001               ?_I2C_Master_Write 0001                 ?i1_setup_timer0 0001  
            ??_I2C_Master_Start 0001              ??_I2C_Master_Write 0001          ?_init_interrupt_timer0 0001  
              LCD_String_xy@pos 000A                LCD_String_xy@row 000D                LCD_String_xy@str 000B  
                        i1l1534 1C60                          i1l1622 19C4                          i1l1710 1048  
                        i1l1544 1DAE                          i1l1538 1C96                          i1l1634 19FE  
                        i1l1650 1A4C                          i1l1730 1088                          i1l1706 1044  
                        i1l1548 1DBE                          i1l1636 1A0A                          i1l1628 19DC  
                        i1l1812 1260                          i1l1900 14F2                          i1l1654 1A62  
                        i1l1646 1A3E                          i1l1670 1B5E                          i1l1822 1296  
                        i1l1726 1084                          i1l1902 14FE                          i1l1824 1298  
                        i1l1816 128A                          i1l1808 123C                          i1l1752 10EA  
                        i1l1744 10D2                          i1l1690 1BC8                          i1l1682 1BA4  
                        i1l1674 1B70                          i1l1666 1B4A                          i1l1770 1162  
                        i1l1762 113A                          i1l1738 10BC                          i1l1676 1B7C  
                        i1l1686 1BB2                          i1l1782 11A0                          i1l1854 1ADC  
                        i1l1838 1A92                          i1l1918 153E                 __CFG_BBSIZ$BB2K 000000  
                        i1l1776 1188                          i1l1872 1B1C                          i1l1864 1AF4  
                        i1l1866 1B00                          i1l1858 1AEC                          i1l1890 1482  
                        i1l1882 145E                          i1l1954 1358                          i1l1788 11BE  
                        i1l1892 148E                          i1l1894 14B4                          i1l1966 13F0  
                        i1l1958 136A                          i1l1888 147C                   ?i1_LCD_String 0004  
        __size_ofi1_LCD_Command 010E                          _SSPADD 000FC8                          _SSPBUF 000FC9  
              __end_of___xxtofl 1550                  __CFG_XINST$OFF 000000                       ??___aldiv 0009  
                     ??___almod 0009                       ??___fldiv 0017                  __CFG_STVREN$ON 000000  
                     ??___fltol 002C                __end_of_readByte 1D20            __size_of_LCD_Command 011E  
                  __pdataCOMRAM 0055                    __mediumconst 0000                          tblptrh 000FF7  
                        tblptrl 000FF6                          tblptru 000FF8                  ??i1_LCD_String 0006  
                  ___xxtofl@arg 000B                    ___xxtofl@exp 000A                    ___xxtofl@val 0001  
                     ?_LCD_Char 0001                      __accesstop 0060         __end_of__initialization 1DEC  
                     ?_LCD_Init 0001                 ??_LCD_String_xy 000D                   ___rparam_used 000001  
                    ___fltol@f1 0028                  __pcstackCOMRAM 0001                    ??_LCD_String 0065  
                 i1_LCD_Command 189A                 printValue@F4581 0055               ??_timer_interrupt 0046  
                  ??i1_LCD_Char 0001                      ??_LCD_Char 0060                      ??_LCD_Init 0064  
               printValue@value 0042              __end_of_LCD_String 1C56              timer_interrupt@lux 0053  
                ?i1_LCD_Command 0001              __end_ofi1_LCD_Char 189A                       ?___xxtofl 0001  
                       i1u13_20 1E46                         i1u15_20 1D7C                         i1u16_28 1D7E  
                       i1u90_25 18DA                         i1u91_25 1982                         i1u91_26 1984  
                       i1u92_20 1C8E                         i1u84_25 1796                         i1u92_27 1C84  
                       i1u93_20 1CC4                         i1u85_25 17AC                         i1u93_27 1CBA  
                       i1u86_25 17CC                         i1u87_25 1874                         i1u87_26 1876  
                       i1u88_25 18A4                         i1u89_25 18BA                         _SSPCON1 000FC6  
                       _SSPCON2 000FC5                         _SSPSTAT 000FC7                    readByte@byte 0008  
                     ?_readByte 0004                   LCD_String@str 0063                         __Hparam 0000  
                       __Lparam 0000                         ___aldiv 19A8                         ___almod 1B2E  
                       ___fldiv 1018                         ___fltol 1A74                    __psmallconst 1000  
                       __pcinit 1DCC            __end_ofi1_LCD_String 1CCC                         __ramtop 1000  
              ??i1_setup_timer0 0001                         __ptext0 1DFA                         __ptext1 1E62  
                       __ptext2 1E50                         __ptext3 1E7E                         __ptext4 1BDA  
                       __ptext5 1550                         __ptext6 1D20                         __ptext7 166E  
                       __ptext8 1E1E                       _T0CONbits 000FD5                      ??___xxtofl 0005  
              ___aldiv@dividend 0001        __size_of_I2C_Master_Init 001E        __size_of_I2C_Master_Read 0036  
       ??_init_interrupt_timer0 0060        __size_of_I2C_Master_Wait 0008        __size_of_I2C_Master_Stop 0008  
       __size_of_init_interrupt 0008            end_of_initialization 1DEC                      ??_readByte 0006  
                 __Lmediumconst 0000       __size_of_I2C_Master_Start 0008       __size_of_I2C_Master_Write 0014  
              ___aldiv@quotient 000B                 ??i1_LCD_Command 0001                I2C_Master_Read@a 0002  
                       postdec1 000FE5                         postinc0 000FEE                       _PORTBbits 000F81  
                     _PORTCbits 000F82                      _printValue 12A0               i1LCD_Command@cmnd 0004  
                 ___xxtofl@sign 0009                   ?_setup_timer0 0001                       _TRISBbits 000F93  
                     _TRISCbits 000F94                     ___fldiv@grs 0022                     ___fldiv@rem 001B  
                   printValue@i 0040               __size_of_LCD_Char 011E               __size_of_LCD_Init 0044  
               i1LCD_String@str 0004                   ??_LCD_Command 0060                 _timer_interrupt 0018  
             LCD_Char@char_data 0062                   __pidataCOMRAM 1E9E                  ??_setup_timer0 0060  
           start_initialization 1DCC               ??_I2C_Master_Init 0060               ??_I2C_Master_Read 0001  
             ??_I2C_Master_Wait 0001               ??_I2C_Master_Stop 0001           __end_of_LCD_String_xy 1DCC  
         __size_ofi1_LCD_String 0076                __CFG_LPT1OSC$OFF 000000                     ?_printValue 0032  
                     ___fldiv@a 0013                       ___fldiv@b 000F             __end_of_LCD_Command 178C  
                 __pcstackBANK0 0060                  _init_interrupt 1E7E                   i1LCD_String@i 0008  
             __size_of___xxtofl 0140                printValue@number 003E                    i1_LCD_String 1C56  
              _I2C_Master_Start 1E8E                _I2C_Master_Write 1E3C         __end_of_timer_interrupt 00A4  
             __size_of_readByte 0054               __CFG_CCP2MX$PORTC 000000                        ?___aldiv 0001  
                      ?___almod 0001                        ?___fldiv 000F                        ?___fltol 0028  
                   __pintcodelo 0018                ___almod@dividend 0001                     __smallconst 1000  
        __end_of_init_interrupt 1E86  __size_of_init_interrupt_timer0 0012   __end_of_init_interrupt_timer0 1E62  
               ___aldiv@divisor 0005                        _LCD_Char 1550                 ___aldiv@counter 0009  
                      _LCD_Init 1D20             __size_of_printValue 0170                        i1u114_20 1B80  
                      i1u108_20 1A0E                        i1u140_20 1A80                        i1u133_20 11EE  
                      i1u141_20 1AB0                        i1u141_25 1AA6                        i1u137_20 124A  
                      i1u145_20 1B06                        i1u153_20 1508                        i1u138_20 126E  
                      i1u171_27 1CEA                        i1u172_27 1802                        i1u157_21 12AA  
                      i1u173_27 1812                        i1u174_27 187E                        i1u175_27 188E  
                      i1u176_27 1910                        i1u177_27 1920                        i1u178_27 198C  
                      i1u179_27 199C            __end_of_setup_timer0 1E70                        _PIR1bits 000F9E  
         __CFG_DATABW$DATA16BIT 000000                        _RCONbits 000FD0                __CFG_WDTPS$32768 000000  
                   _LCD_Command 166E               __CFG_ECCPMX$PORTE 000000                 ?_init_interrupt 0001  
           I2C_Master_Read@temp 0003                     _INTCON2bits 000FF1                       copy_data0 1DE0  
              ?_timer_interrupt 0001                        __Hrparam 0000                        __Lrparam 0000  
            __CFG_BOREN$SBORDIS 000000                __size_of___aldiv 00CC                __size_of___almod 00AC  
         __end_ofi1_LCD_Command 19A8                __size_of___fldiv 0288                __size_of___fltol 00BA  
               _I2C_Master_Init 1E1E                 _I2C_Master_Read 1D64                        ___xxtofl 1410  
               _I2C_Master_Wait 1E96                 _I2C_Master_Stop 1E86                        __ptext10 1E70  
                      __ptext11 1CCC                        __ptext20 1018                        __ptext12 1E3C  
                      __ptext21 1B2E                        __ptext13 1E86                        __ptext22 19A8  
                      __ptext14 1E8E                        __ptext23 1D9A                        __ptext15 1D64  
                      __ptext24 1C56                        __ptext16 1E96                        __ptext25 178C  
                      __ptext17 12A0                        __ptext26 189A                        __ptext18 1410  
                      __ptext19 1A74         __size_ofi1_setup_timer0 000E                 ___almod@divisor 0005  
               ___almod@counter 0009                        _readByte 1CCC                   __size_of_main 0024  
                      int$flags 005B                      _LCD_String 1BDA                    ??_printValue 0034  
         __CFG_ADDRBW$ADDR20BIT 000000        __end_of_I2C_Master_Start 1E96        __end_of_I2C_Master_Write 1E50  
                    _INTCONbits 000FF2                 LCD_Command@cmnd 0063                      i1_LCD_Char 178C  
           i1LCD_Char@char_data 0003                        intlevel1 0000           __size_of_setup_timer0 000E  
            __end_of_printValue 1410         __end_of_I2C_Master_Init 1E3C         __end_of_I2C_Master_Read 1D9A  
       __end_of_I2C_Master_Wait 1E9E         __end_of_I2C_Master_Stop 1E8E               I2C_Master_Write@d 0001  
        __size_of_LCD_String_xy 0032                    ___aldiv@sign 000A                    _setup_timer0 1E62  
                   _SSPCON1bits 000FC6                     _SSPCON2bits 000FC5                    ___almod@sign 000A  
